(lp1
S'117.177.243.42:81'
p2
aS'120.52.73.32:8080'
p3
aS'123.125.104.240:80'
p4
aS'218.75.0.83:3128'
p5
aS'175.43.123.1:55336'
p6
aS'120.52.73.6:8080'
p7
aS'120.52.73.10:80'
p8
aS'221.176.14.72:80'
p9
aS'61.174.10.22:8080'
p10
aS'218.92.227.165:12945'
p11
aS'117.177.243.14:86'
p12
aS'58.253.238.242:80'
p13
aS'218.92.227.165:24809'
p14
aS'120.197.234.164:80'
p15
aS'202.100.167.137:80'
p16
aS'195.154.231.43:3128'
p17
aS'218.92.227.166:16158'
p18
aS'218.92.227.165:12884'
p19
aS'211.144.81.68:18000'
p20
aS'218.92.227.165:19329'
p21
aS'124.206.133.227:80'
p22
aS'61.153.198.178:3128'
p23
aS'218.92.227.165:20912'
p24
aS'198.169.246.30:80'
p25
aS'218.92.227.173:34034'
p26
aS'218.92.227.165:35098'
p27
aS'120.52.73.11:8080'
p28
aS'202.100.167.145:80'
p29
aS'101.26.38.162:80'
p30
aS'222.246.232.55:8101'
p31
aS'192.99.71.135:3128'
p32
aS'221.206.209.251:3128'
p33
aS'202.103.215.199:80'
p34
aS'101.66.253.22:8080'
p35
aS'218.92.227.165:21320'
p36
aS'218.92.227.166:33942'
p37
aS'202.100.167.180:80'
p38
aS'120.198.231.21:80'
p39
aS'117.177.243.14:83'
p40
aS'218.92.227.165:24379'
p41
aS'218.92.227.172:33719'
p42
aS'218.92.227.173:35010'
p43
aS'120.52.73.25:80'
p44
aS'112.25.41.136:80'
p45
aS'183.95.81.100:80'
p46
aS'218.213.166.218:81'
p47
aS'117.177.250.149:8080'
p48
aS'120.198.231.24:8080'
p49
aS'113.247.233.67:3128'
p50
aS'202.100.167.173:80'
p51
aS'202.29.97.2:3128'
p52
aS'213.136.79.124:80'
p53
aS'218.92.227.171:18256'
p54
aS'183.239.167.122:8080'
p55
aS'218.92.227.168:24379'
p56
aS'218.92.227.173:10000'
p57
aS'218.92.227.171:33919'
p58
aS'218.92.227.165:33965'
p59
aS'218.92.227.165:18888'
p60
aS'115.238.225.26:80'
p61
aS'116.53.74.216:3128'
p62
aS'122.225.106.35:80'
p63
aS'5.189.167.48:3128'
p64
aS'218.92.227.170:34484'
p65
aS'218.92.227.173:15692'
p66
aS'117.177.250.147:80'
p67
aS'12.173.71.197:8080'
p68
aS'190.7.112.16:3128'
p69
aS'125.212.225.86:3128'
p70
aS'101.226.249.237:80'
p71
aS'60.191.180.38:3128'
p72
aS'218.92.227.165:33944'
p73
aS'58.133.61.3:3128'
p74
aS'120.52.73.41:80'
p75
aS'124.251.62.246:80'
p76
aS'59.39.88.190:8080'
p77
aS'202.100.167.170:80'
p78
aS'122.225.106.36:80'
p79
aS'113.215.0.130:80'
p80
aS'59.58.162.141:888'
p81
aS'218.75.8.244:3128'
p82
aS'60.191.158.211:3128'
p83
aS'218.92.227.165:13243'
p84
aS'218.92.227.165:33719'
p85
aS'118.70.80.125:3128'
p86
aS'218.92.227.171:16107'
p87
aS'182.18.19.222:3128'
p88
aS'113.30.102.91:3128'
p89
aS'61.38.252.23:8088'
p90
aS'218.92.227.166:15238'
p91
aS'118.70.80.131:3128'
p92
aS'54.254.234.211:3128'
p93
aS'117.177.250.154:8080'
p94
aS'58.253.238.243:80'
p95
aS'60.191.153.75:3128'
p96
aS'120.52.73.5:80'
p97
aS'202.100.167.144:80'
p98
aS'115.231.65.15:8080'
p99
aS'61.179.110.8:8081'
p100
aS'60.191.164.22:3128'
p101
aS'192.118.76.172:80'
p102
aS'221.5.4.90:8080'
p103
aS'218.92.227.168:17130'
p104
aS'117.114.129.122:3128'
p105
aS'101.200.234.114:8080'
p106
aS'120.198.231.22:80'
p107
aS'61.38.252.15:3128'
p108
aS'61.38.252.14:3128'
p109
aS'218.92.227.165:17945'
p110
aS'218.78.210.190:8080'
p111
aS'182.92.104.79:3128'
p112
aS'180.183.107.1:8080'
p113
aS'89.163.129.222:3128'
p114
aS'58.20.232.245:8000'
p115
aS'115.231.158.51:3128'
p116
aS'120.27.136.245:8080'
p117
aS'120.194.18.90:81'
p118
aS'222.240.207.146:3128'
p119
aS'120.52.73.24:80'
p120
aS'120.55.65.73:3128'
p121
aS'118.144.187.253:3128'
p122
aS'121.14.138.56:81'
p123
aS'202.100.167.158:80'
p124
aS'202.100.167.159:80'
p125
aS'218.92.227.166:34032'
p126
aS'61.163.91.75:3128'
p127
aS'222.175.59.218:9797'
p128
aS'202.100.167.171:80'
p129
aS'218.92.227.173:33965'
p130
aS'101.99.7.200:3128'
p131
aS'202.100.167.172:80'
p132
aS'213.174.107.155:3128'
p133
aS'60.191.166.130:3128'
p134
aS'128.199.99.190:8888'
p135
aS'190.98.162.22:8080'
p136
aS'202.100.167.149:80'
p137
aS'113.204.212.50:3128'
p138
aS'183.111.169.205:3128'
p139
aS'112.101.80.171:9797'
p140
aS'101.99.7.195:3128'
p141
aS'183.63.239.213:3128'
p142
aS'58.213.19.233:10081'
p143
aS'124.129.136.150:9999'
p144
aS'116.231.192.243:9797'
p145
aS'183.111.169.206:3128'
p146
aS'61.38.252.16:3128'
p147
aS'61.38.252.13:3128'
p148
aS'200.140.199.170:3130'
p149
aS'58.120.96.236:3128'
p150
aS'113.30.102.96:3128'
p151
aS'183.111.169.204:3128'
p152
aS'113.30.102.92:3128'
p153
aS'61.38.252.12:3128'
p154
aS'108.165.33.7:3128'
p155
aS'5.196.0.42:8080'
p156
aS'123.49.33.252:8080'
p157
aS'139.162.16.204:3128'
p158
aS'221.205.214.37:9797'
p159
aS'121.199.25.64:81'
p160
aS'123.7.88.171:3128'
p161
aS'159.226.40.218:10001'
p162
aS'119.188.94.145:80'
p163
aS'60.169.78.218:808'
p164
aS'159.226.224.180:3128'
p165
aS'223.255.14.245:9000'
p166
aS'94.188.40.54:3128'
p167
aS'183.111.169.207:3128'
p168
aS'118.70.80.136:3128'
p169
aS'95.158.139.48:8080'
p170
aS'117.177.250.145:80'
p171
aS'118.144.50.220:3128'
p172
aS'119.253.252.23:3128'
p173
aS'119.253.252.27:3128'
p174
aS'222.174.177.132:8080'
p175
aS'118.26.143.202:3128'
p176
aS'118.26.62.234:3128'
p177
aS'121.32.52.54:9999'
p178
aS'183.111.169.201:3128'
p179
aS'183.111.169.202:3128'
p180
aS'124.6.135.170:3128'
p181
aS'202.62.85.186:8080'
p182
aS'5.141.9.86:8080'
p183
aS'139.162.2.210:3128'
p184
aS'114.5.12.110:8080'
p185
aS'101.226.12.223:80'
p186
aS'119.253.252.29:3128'
p187
aS'182.18.19.219:3128'
p188
aS'59.61.80.78:9999'
p189
aS'121.88.249.27:3128'
p190
aS'175.197.116.151:3128'
p191
aS'113.30.102.93:3128'
p192
aS'202.77.100.221:80'
p193
aS'213.211.36.146:8080'
p194
aS'178.151.149.227:80'
p195
aS'60.191.157.19:3128'
p196
aS'121.69.25.38:8080'
p197
aS'106.38.251.62:8088'
p198
aS'182.92.154.63:3128'
p199
aS'183.62.58.250:9797'
p200
aS'78.36.171.210:80'
p201
aS'183.111.169.208:3128'
p202
aS'61.38.252.17:3128'
p203
aS'69.175.71.171:80'
p204
aS'221.237.154.57:9797'
p205
aS'27.254.47.203:80'
p206
aS'218.30.35.86:8080'
p207
aS'69.175.71.162:80'
p208
aS'218.92.227.173:15238'
p209
aS'221.228.248.248:8085'
p210
aS'176.31.180.116:3128'
p211
aS'149.202.56.98:8888'
p212
aS'77.245.110.111:8080'
p213
aS'158.69.217.31:80'
p214
aS'160.92.56.40:80'
p215
aS'111.68.123.179:8080'
p216
aS'162.243.218.171:8080'
p217
aS'178.62.182.5:3127'
p218
aS'123.59.33.250:80'
p219
aS'80.96.203.117:9999'
p220
aS'95.58.63.186:9090'
p221
aS'202.108.23.247:80'
p222
aS'60.13.8.225:8888'
p223
aS'113.80.37.40:3128'
p224
aS'178.18.197.82:3128'
p225
aS'14.139.60.8:9797'
p226
aS'183.89.228.88:8080'
p227
aS'58.120.96.234:3128'
p228
aS'103.242.56.108:80'
p229
aS'80.28.231.183:8080'
p230
aS'71.252.175.32:8080'
p231
aS'122.226.128.251:3128'
p232
aS'69.175.71.165:80'
p233
aS'58.20.59.166:808'
p234
aS'121.15.230.126:9797'
p235
aS'117.41.186.180:3128'
p236
aS'58.120.96.232:3128'
p237
aS'183.111.169.209:3128'
p238
aS'69.175.71.163:80'
p239
aS'116.55.170.96:3128'
p240
aS'60.219.24.111:3128'
p241
aS'202.100.167.182:80'
p242
aS'211.144.76.58:9000'
p243
aS'36.110.110.42:3128'
p244
aS'183.23.180.171:9000'
p245
aS'220.143.73.8:3128'
p246
aS'202.100.167.166:80'
p247
aS'36.234.125.25:3128'
p248
aS'59.34.13.66:3128'
p249
aS'54.238.204.98:3128'
p250
aS'185.39.37.16:80'
p251
aS'198.7.57.19:3128'
p252
aS'52.25.79.253:8080'
p253
aS'43.243.112.87:3128'
p254
aS'177.72.81.56:8080'
p255
aS'120.52.73.18:8081'
p256
aS'117.177.250.146:8080'
p257
aS'110.52.232.60:80'
p258
aS'111.13.12.216:80'
p259
aS'120.52.73.29:82'
p260
aS'58.20.232.239:8000'
p261
aS'123.54.3.18:8000'
p262
aS'117.177.243.14:8080'
p263
aS'120.52.73.39:8080'
p264
aS'110.52.232.76:80'
p265
aS'111.11.255.11:80'
p266
aS'115.231.65.16:8080'
p267
aS'223.167.186.44:80'
p268
aS'112.25.185.171:8000'
p269
aS'124.166.250.14:3128'
p270
aS'58.243.0.162:9999'
p271
aS'119.81.226.186:8000'
p272
aS'58.22.191.243:80'
p273
aS'178.252.146.6:8080'
p274
aS'203.88.162.35:3128'
p275
aS'221.6.190.10:8008'
p276
aS'116.211.19.201:8008'
p277
aS'118.163.216.168:3128'
p278
aS'202.82.87.42:8080'
p279
aS'203.192.12.146:80'
p280
aS'194.185.163.133:80'
p281
aS'113.30.102.95:3128'
p282
aS'183.89.108.197:8080'
p283
aS'24.157.37.61:8080'
p284
aS'183.82.114.99:3128'
p285
aS'217.21.146.209:8080'
p286
aS'112.170.41.49:3128'
p287
aS'173.236.22.4:80'
p288
aS'173.236.22.6:80'
p289
a.