(lp1
S'202.100.167.182:80'
p2
aS'218.92.227.172:11095'
p3
aS'202.100.167.171:80'
p4
aS'111.11.255.11:80'
p5
aS'218.92.227.171:33948'
p6
aS'218.92.227.169:18186'
p7
aS'218.92.227.165:18256'
p8
aS'14.152.37.194:80'
p9
aS'27.115.75.114:8080'
p10
aS'27.221.10.194:8081'
p11
aS'27.221.31.66:8080'
p12
aS'58.220.2.133:80'
p13
aS'58.220.2.135:80'
p14
aS'58.220.2.137:80'
p15
aS'58.220.2.138:80'
p16
aS'58.220.2.139:80'
p17
aS'58.220.2.140:80'
p18
aS'58.220.2.141:80'
p19
aS'58.220.2.142:80'
p20
aS'58.220.2.145:80'
p21
aS'58.220.2.147:80'
p22
aS'58.220.2.148:80'
p23
aS'58.220.2.153:80'
p24
aS'58.220.2.156:80'
p25
aS'58.220.2.159:17183'
p26
aS'58.253.238.242:80'
p27
aS'58.253.238.243:80'
p28
aS'59.58.162.141:888'
p29
aS'60.15.56.67:3128'
p30
aS'60.29.248.142:8080'
p31
aS'60.191.158.211:3128'
p32
aS'60.191.164.22:3128'
p33
aS'60.191.167.11:3128'
p34
aS'60.191.167.93:3128'
p35
aS'60.191.170.52:3128'
p36
aS'60.191.179.53:3128'
p37
aS'60.194.100.51:80'
p38
aS'61.174.10.22:8080'
p39
aS'101.66.253.22:8080'
p40
aS'101.226.249.237:80'
p41
aS'106.37.177.251:3128'
p42
aS'106.38.251.62:8088'
p43
aS'106.38.251.63:8088'
p44
aS'112.25.41.136:80'
p45
aS'112.84.130.10:80'
p46
aS'112.84.130.11:80'
p47
aS'112.84.130.14:80'
p48
aS'112.84.130.18:80'
p49
aS'112.84.130.31:80'
p50
aS'113.204.212.50:3128'
p51
aS'115.159.5.247:80'
p52
aS'115.159.5.247:8080'
p53
aS'115.182.83.38:8080'
p54
aS'115.231.65.15:8080'
p55
aS'115.231.65.16:8080'
p56
aS'115.238.225.26:80'
p57
aS'116.228.80.186:8080'
p58
aS'117.156.15.19:80'
p59
aS'117.156.15.20:80'
p60
aS'117.156.15.21:80'
p61
aS'117.156.15.22:80'
p62
aS'117.156.15.23:80'
p63
aS'117.177.243.42:81'
p64
aS'117.177.243.42:82'
p65
aS'117.177.243.42:84'
p66
aS'117.177.243.42:85'
p67
aS'117.177.243.42:86'
p68
aS'117.177.243.42:8080'
p69
aS'117.177.243.42:8081'
p70
aS'117.177.243.42:8082'
p71
aS'117.177.243.42:8083'
p72
aS'117.177.243.42:8084'
p73
aS'117.177.243.42:8085'
p74
aS'117.177.243.42:8086'
p75
aS'117.177.249.9:80'
p76
aS'118.144.171.253:3128'
p77
aS'118.244.239.2:3128'
p78
aS'119.147.161.55:3128'
p79
aS'120.192.92.98:80'
p80
aS'120.197.234.164:80'
p81
aS'121.14.138.56:81'
p82
aS'121.15.230.126:9797'
p83
aS'121.43.187.19:8080'
p84
aS'122.72.18.160:80'
p85
aS'122.72.20.188:80'
p86
aS'122.136.46.151:80'
p87
aS'122.141.243.131:80'
p88
aS'123.157.99.139:3128'
p89
aS'124.251.62.246:80'
p90
aS'125.39.17.91:3128'
p91
aS'175.43.123.1:55336'
p92
aS'180.97.185.35:10001'
p93
aS'180.166.112.47:8888'
p94
aS'182.140.132.103:8888'
p95
aS'182.140.132.108:8888'
p96
aS'182.254.153.54:80'
p97
aS'182.254.153.54:8080'
p98
aS'183.111.169.201:3128'
p99
aS'183.111.169.206:3128'
p100
aS'183.207.228.122:80'
p101
aS'183.207.232.119:8080'
p102
aS'183.207.232.119:9080'
p103
aS'183.207.232.193:8080'
p104
aS'183.207.232.193:9080'
p105
aS'183.207.232.194:8080'
p106
aS'183.207.232.194:9080'
p107
aS'183.232.32.100:3128'
p108
aS'192.241.181.108:8080'
p109
aS'14.29.116.77:80'
p110
aS'49.4.129.149:80'
p111
aS'58.133.61.3:3128'
p112
aS'218.92.227.165:33965'
p113
aS'58.220.10.7:80'
p114
aS'202.100.167.149:80'
p115
aS'218.92.227.170:33948'
p116
aS'59.39.88.190:8080'
p117
aS'60.191.146.52:3128'
p118
aS'218.92.227.168:23239'
p119
aS'60.191.156.134:3128'
p120
aS'60.191.161.28:3128'
p121
aS'124.206.167.250:3128'
p122
aS'218.92.227.171:16107'
p123
aS'218.92.227.171:15238'
p124
aS'60.191.168.43:3128'
p125
aS'60.191.173.11:3128'
p126
aS'60.191.175.54:3128'
p127
aS'111.11.184.51:80'
p128
aS'218.92.227.168:13374'
p129
aS'218.92.227.173:23684'
p130
aS'61.153.201.187:3128'
p131
aS'76.12.101.212:3128'
p132
aS'94.23.200.49:3128'
p133
aS'101.26.38.162:80'
p134
aS'103.27.24.117:80'
p135
aS'106.56.225.200:3128'
p136
aS'111.11.184.49:80'
p137
aS'112.124.22.31:3128'
p138
aS'113.247.233.67:3128'
p139
aS'115.29.150.252:3128'
p140
aS'115.231.158.51:80'
p141
aS'115.231.158.51:3128'
p142
aS'116.112.102.38:3128'
p143
aS'120.26.79.126:3128'
p144
aS'120.198.236.10:80'
p145
aS'120.198.236.10:8081'
p146
aS'120.198.236.10:8084'
p147
aS'121.42.156.220:3128'
p148
aS'121.207.6.58:3128'
p149
aS'121.207.6.126:3128'
p150
aS'122.48.244.121:80'
p151
aS'122.70.178.242:8118'
p152
aS'122.72.124.42:80'
p153
aS'122.225.106.35:80'
p154
aS'122.225.106.36:80'
p155
aS'122.226.128.251:3128'
p156
aS'122.226.132.139:3128'
p157
aS'122.226.133.60:3128'
p158
aS'124.166.250.14:3128'
p159
aS'124.206.133.227:80'
p160
aS'125.212.225.86:3128'
p161
aS'128.199.247.154:80'
p162
aS'163.177.155.2:8088'
p163
aS'163.177.159.148:8080'
p164
aS'163.177.159.149:80'
p165
aS'175.188.188.104:8080'
p166
aS'176.31.99.80:2222'
p167
aS'183.63.239.213:3128'
p168
aS'183.239.167.122:8080'
p169
aS'183.252.18.131:8080'
p170
aS'186.227.208.162:8081'
p171
aS'188.226.172.109:3128'
p172
aS'120.198.245.39:80'
p173
aS'124.200.100.50:8080'
p174
aS'58.220.2.134:80'
p175
aS'113.200.250.112:8080'
p176
aS'111.11.184.51:9999'
p177
aS'183.250.161.227:9999'
p178
aS'27.221.31.78:8080'
p179
aS'58.220.2.132:80'
p180
aS'58.220.2.136:80'
p181
aS'117.156.15.25:80'
p182
aS'117.177.243.42:83'
p183
aS'120.192.92.99:80'
p184
a.