(lp1
S'27.221.31.78:8080'
p2
aS'58.220.2.137:80'
p3
aS'58.220.2.140:80'
p4
aS'58.220.2.159:17183'
p5
aS'60.11.11.163:3128'
p6
aS'60.191.167.11:3128'
p7
aS'60.191.167.93:3128'
p8
aS'101.66.253.22:8080'
p9
aS'101.226.249.237:80'
p10
aS'112.84.130.11:80'
p11
aS'115.159.5.247:80'
p12
aS'115.231.65.16:8080'
p13
aS'117.156.15.19:80'
p14
aS'117.156.15.20:80'
p15
aS'117.156.15.23:80'
p16
aS'117.177.243.42:86'
p17
aS'117.177.243.42:8082'
p18
aS'117.177.243.42:8083'
p19
aS'117.177.243.42:8085'
p20
aS'117.177.249.9:80'
p21
aS'122.72.20.188:80'
p22
aS'122.225.106.35:80'
p23
aS'182.140.132.103:8888'
p24
aS'183.207.232.193:8080'
p25
aS'183.207.232.194:8080'
p26
aS'202.106.16.36:3128'
p27
aS'203.195.162.96:80'
p28
aS'211.144.81.69:18001'
p29
aS'218.90.174.167:3128'
p30
aS'117.156.15.22:80'
p31
aS'122.70.178.242:8118'
p32
aS'101.26.38.162:80'
p33
aS'218.92.227.165:15692'
p34
aS'101.226.12.223:80'
p35
aS'117.156.15.25:80'
p36
aS'118.244.239.2:3128'
p37
aS'218.92.227.172:29037'
p38
aS'218.92.227.165:33944'
p39
aS'163.177.159.145:80'
p40
aS'117.177.243.40:86'
p41
aS'27.221.31.66:8080'
p42
aS'58.220.2.141:80'
p43
aS'113.200.250.112:8080'
p44
aS'117.177.243.42:85'
p45
aS'117.177.243.42:8080'
p46
aS'117.177.243.42:8086'
p47
aS'120.197.234.164:80'
p48
aS'182.254.153.54:8080'
p49
aS'183.207.232.194:9080'
p50
aS'211.137.32.222:80'
p51
aS'58.220.2.134:80'
p52
aS'103.27.24.118:80'
p53
aS'218.92.227.165:12946'
p54
a.