(lp1
S'202.100.167.145:80'
p2
aS'202.103.215.199:80'
p3
aS'120.198.231.24:8080'
p4
aS'117.177.250.147:80'
p5
aS'101.226.249.237:80'
p6
aS'202.100.167.144:80'
p7
aS'110.52.232.76:80'
p8
aS'120.197.234.164:80'
p9
aS'120.198.231.85:80'
p10
aS'119.147.161.55:3128'
p11
aS'222.88.182.52:8000'
p12
aS'117.177.250.151:8080'
p13
aS'222.89.167.66:8000'
p14
aS'1.193.163.32:8000'
p15
aS'117.177.250.152:81'
p16
aS'117.177.250.151:82'
p17
aS'117.177.250.146:83'
p18
aS'202.106.16.36:3128'
p19
aS'218.90.174.167:3128'
p20
aS'117.177.250.152:80'
p21
aS'120.198.231.88:80'
p22
aS'120.198.231.22:8081'
p23
aS'123.54.5.70:8000'
p24
aS'117.177.250.154:8081'
p25
aS'1.197.77.79:8000'
p26
aS'223.68.1.38:8000'
p27
aS'119.6.55.190:80'
p28
aS'117.177.250.154:80'
p29
aS'117.177.250.152:82'
p30
aS'110.52.232.75:8000'
p31
aS'117.177.250.153:81'
p32
aS'183.95.81.100:80'
p33
aS'117.177.250.146:8080'
p34
aS'120.237.57.83:80'
p35
aS'60.194.100.51:80'
p36
aS'211.144.81.69:18000'
p37
aS'110.52.232.75:80'
p38
aS'117.177.250.153:8080'
p39
aS'117.177.250.148:80'
p40
aS'120.198.231.23:80'
p41
aS'120.52.72.56:80'
p42
aS'117.177.250.148:8080'
p43
aS'221.176.14.72:80'
p44
aS'120.198.231.87:80'
p45
aS'123.126.108.190:3128'
p46
aS'58.16.145.184:80'
p47
aS'58.42.208.244:3128'
p48
aS'58.252.7.125:8000'
p49
aS'221.203.208.22:80'
p50
aS'157.122.156.98:8000'
p51
aS'120.52.72.24:80'
p52
aS'58.253.238.242:80'
p53
aS'202.100.167.160:80'
p54
aS'123.157.155.58:8000'
p55
aS'58.22.86.44:8000'
p56
aS'61.179.110.8:8081'
p57
aS'202.100.167.159:80'
p58
aS'27.115.75.114:8080'
p59
aS'110.52.232.56:80'
p60
aS'60.29.248.142:8080'
p61
aS'61.174.10.22:8080'
p62
aS'110.52.232.60:80'
p63
aS'115.46.88.61:8000'
p64
aS'117.177.250.153:80'
p65
aS'221.7.139.250:8000'
p66
aS'111.1.89.254:80'
p67
aS'120.52.72.33:80'
p68
aS'120.52.72.43:80'
p69
aS'1.193.162.91:8000'
p70
aS'120.52.72.36:80'
p71
aS'202.100.167.137:80'
p72
aS'31.173.74.73:8080'
p73
aS'120.52.72.53:80'
p74
aS'222.89.231.174:8000'
p75
aS'120.52.72.30:80'
p76
aS'58.20.234.243:8000'
p77
aS'153.101.208.147:80'
p78
aS'112.25.41.136:80'
p79
aS'120.52.72.47:80'
p80
aS'120.52.72.38:80'
p81
aS'120.52.72.23:80'
p82
aS'120.198.231.24:80'
p83
aS'120.198.231.86:8080'
p84
aS'120.52.72.67:80'
p85
aS'202.100.167.142:80'
p86
aS'171.34.41.248:8000'
p87
aS'58.20.242.85:8000'
p88
aS'213.136.79.124:80'
p89
aS'110.53.49.65:8000'
p90
aS'120.52.72.21:80'
p91
aS'120.198.244.29:8080'
p92
aS'220.176.196.138:80'
p93
aS'59.39.88.190:8080'
p94
aS'36.7.151.29:8000'
p95
aS'123.163.52.24:8000'
p96
aS'120.52.72.32:80'
p97
aS'220.249.187.36:8000'
p98
aS'211.144.81.68:18000'
p99
aS'202.100.167.180:80'
p100
aS'202.100.167.149:80'
p101
aS'113.107.57.76:8101'
p102
aS'120.52.72.66:80'
p103
aS'36.7.108.56:8000'
p104
aS'202.100.167.182:80'
p105
aS'202.100.167.170:80'
p106
aS'117.177.250.154:82'
p107
aS'222.89.107.210:8000'
p108
aS'218.213.166.218:81'
p109
aS'123.54.1.41:80'
p110
aS'121.193.143.249:80'
p111
aS'91.121.139.227:80'
p112
aS'117.177.250.149:80'
p113
aS'123.162.182.71:8000'
p114
aS'221.7.169.124:8000'
p115
aS'119.255.9.93:80'
p116
aS'119.39.191.52:80'
p117
aS'222.246.232.55:80'
p118
aS'217.20.83.130:3128'
p119
aS'120.194.220.250:8000'
p120
aS'58.211.13.26:55336'
p121
aS'120.52.72.77:80'
p122
aS'121.69.33.158:8080'
p123
aS'1.197.14.102:8000'
p124
aS'121.31.22.82:8000'
p125
aS'117.177.250.147:8080'
p126
aS'117.177.250.149:8080'
p127
aS'120.52.72.180:80'
p128
aS'61.235.125.26:81'
p129
aS'223.68.190.136:8000'
p130
aS'120.52.72.46:80'
p131
aS'120.52.72.68:80'
p132
aS'183.239.167.122:8080'
p133
aS'221.5.4.90:8080'
p134
aS'111.200.230.234:80'
p135
aS'183.221.221.149:8000'
p136
aS'111.47.171.41:80'
p137
aS'123.157.99.140:80'
p138
aS'120.52.72.80:80'
p139
aS'118.144.151.145:3128'
p140
aS'117.177.250.154:81'
p141
aS'202.195.192.197:3128'
p142
aS'120.52.72.49:80'
p143
aS'218.198.126.242:8080'
p144
aS'120.194.85.49:8000'
p145
aS'120.52.72.37:80'
p146
aS'120.52.72.39:80'
p147
aS'157.122.156.98:80'
p148
aS'123.157.233.138:8000'
p149
aS'120.52.72.57:80'
p150
aS'171.35.242.139:80'
p151
aS'121.31.21.138:8000'
p152
aS'222.176.112.10:80'
p153
aS'198.1.88.46:3128'
p154
aS'222.246.232.55:8101'
p155
aS'117.177.250.147:8081'
p156
aS'115.46.88.61:80'
p157
aS'123.51.170.57:80'
p158
aS'140.207.100.114:8080'
p159
aS'183.239.173.138:8080'
p160
aS'116.228.143.200:80'
p161
aS'123.162.182.70:8000'
p162
aS'122.226.182.233:8080'
p163
aS'58.252.8.25:8000'
p164
aS'117.177.250.146:8081'
p165
aS'123.157.209.62:8000'
p166
aS'123.52.232.158:8000'
p167
aS'120.52.72.45:80'
p168
aS'111.40.197.10:80'
p169
aS'111.47.13.2:80'
p170
aS'120.52.72.55:80'
p171
aS'120.198.231.85:8080'
p172
aS'58.83.174.114:80'
p173
aS'115.159.5.247:8080'
p174
aS'223.68.190.178:8000'
p175
aS'183.207.228.122:80'
p176
aS'117.57.168.25:8000'
p177
aS'222.73.218.43:80'
p178
aS'192.99.54.41:8080'
p179
aS'45.113.253.43:8090'
p180
aS'218.75.0.83:3128'
p181
aS'120.131.128.211:80'
p182
aS'120.52.73.27:8081'
p183
aS'176.9.59.80:3128'
p184
aS'106.37.177.251:3128'
p185
aS'101.200.179.38:3128'
p186
aS'58.20.248.68:8000'
p187
aS'182.254.153.54:8080'
p188
aS'120.194.249.240:8000'
p189
aS'107.151.152.210:80'
p190
aS'61.174.13.12:80'
p191
aS'117.177.250.153:82'
p192
aS'1.193.162.123:8000'
p193
aS'218.78.210.190:8080'
p194
aS'203.195.162.96:8080'
p195
aS'107.151.136.194:80'
p196
aS'123.51.170.58:80'
p197
aS'221.7.216.48:80'
p198
aS'222.88.202.208:8000'
p199
aS'122.225.106.36:80'
p200
aS'111.200.230.233:80'
p201
aS'58.133.61.3:3128'
p202
aS'190.123.38.5:80'
p203
aS'118.26.143.202:3128'
p204
aS'103.245.83.37:81'
p205
aS'111.206.81.248:80'
p206
aS'124.200.100.50:8080'
p207
aS'213.136.79.122:80'
p208
aS'66.96.232.100:3128'
p209
aS'82.200.245.107:3128'
p210
aS'101.66.253.22:8080'
p211
aS'119.6.55.190:8000'
p212
aS'210.91.41.60:3128'
p213
aS'112.16.87.24:80'
p214
aS'112.25.234.188:8000'
p215
aS'112.16.87.157:80'
p216
aS'119.28.49.187:3128'
p217
aS'108.59.10.135:55555'
p218
aS'180.97.29.57:80'
p219
aS'202.105.179.164:3128'
p220
aS'221.206.210.195:3128'
p221
aS'149.202.249.227:3128'
p222
aS'158.69.218.72:8080'
p223
aS'120.198.233.211:8080'
p224
aS'51.254.103.206:3128'
p225
aS'223.68.184.81:8000'
p226
aS'202.108.23.247:80'
p227
aS'101.200.178.46:3128'
p228
aS'37.187.60.61:80'
p229
aS'61.153.201.187:3128'
p230
aS'202.117.48.252:3128'
p231
aS'221.10.121.42:80'
p232
aS'123.7.88.197:3128'
p233
aS'5.45.75.191:80'
p234
aS'112.74.45.251:80'
p235
aS'61.159.143.8:80'
p236
aS'202.100.167.169:80'
p237
aS'123.7.115.141:9797'
p238
aS'122.154.66.132:80'
p239
aS'111.47.171.41:8000'
p240
aS'120.27.118.141:3128'
p241
aS'120.52.72.65:80'
p242
aS'177.223.12.121:8080'
p243
aS'203.195.160.14:8080'
p244
aS'111.2.196.130:80'
p245
aS'199.115.117.212:80'
p246
aS'117.149.31.107:8000'
p247
aS'104.236.220.70:80'
p248
aS'85.143.164.100:81'
p249
aS'195.138.78.222:8080'
p250
aS'120.52.42.107:80'
p251
aS'123.157.99.140:8000'
p252
aS'112.25.41.111:80'
p253
aS'58.20.235.180:8000'
p254
aS'203.66.159.46:3128'
p255
aS'220.248.224.243:8089'
p256
aS'114.66.7.140:8080'
p257
aS'121.69.22.6:8118'
p258
aS'58.246.242.154:8080'
p259
aS'122.70.178.242:8118'
p260
aS'115.29.202.148:8888'
p261
aS'121.69.31.146:8118'
p262
aS'117.135.251.136:80'
p263
aS'122.225.107.145:80'
p264
aS'221.4.250.114:8000'
p265
aS'117.135.251.135:80'
p266
aS'120.194.222.212:8000'
p267
aS'123.56.28.196:8888'
p268
aS'117.135.251.134:80'
p269
aS'14.221.137.94:3128'
p270
aS'117.21.182.109:80'
p271
aS'202.96.102.57:8080'
p272
aS'183.247.158.188:80'
p273
aS'128.199.159.105:8080'
p274
aS'110.52.232.66:80'
p275
aS'123.51.170.56:80'
p276
aS'45.32.25.158:8080'
p277
aS'92.222.209.51:3128'
p278
aS'112.29.170.67:80'
p279
aS'119.188.94.145:80'
p280
aS'108.165.33.7:3128'
p281
aS'78.36.171.228:80'
p282
aS'78.110.147.229:3128'
p283
aS'109.235.65.68:3128'
p284
aS'121.69.9.74:8118'
p285
aS'112.73.0.34:80'
p286
aS'112.53.81.186:80'
p287
aS'222.186.12.195:3080'
p288
aS'117.114.129.122:3128'
p289
aS'186.4.142.98:3128'
p290
aS'49.231.17.108:8080'
p291
aS'121.42.152.19:80'
p292
aS'119.29.142.189:80'
p293
aS'119.202.60.77:80'
p294
aS'222.254.76.39:3128'
p295
aS'103.243.94.240:81'
p296
aS'52.29.169.140:8080'
p297
aS'45.115.36.73:3128'
p298
aS'1.234.45.50:3128'
p299
aS'185.87.160.135:4444'
p300
aS'120.138.75.51:8080'
p301
aS'117.21.182.110:80'
p302
aS'218.241.167.190:3128'
p303
aS'176.38.24.73:8080'
p304
aS'131.107.250.16:80'
p305
aS'108.59.10.141:55555'
p306
aS'219.255.197.90:3128'
p307
aS'45.113.253.45:8090'
p308
aS'112.90.179.153:4040'
p309
aS'104.250.146.37:81'
p310
aS'108.59.10.138:55555'
p311
aS'108.59.10.129:55555'
p312
aS'117.135.251.132:8080'
p313
aS'120.52.72.58:80'
p314
aS'117.121.49.217:80'
p315
aS'111.161.126.106:80'
p316
a.