(lp1
S'58.59.68.91:9797'
p2
aS'58.220.2.132:80'
p3
aS'58.220.2.133:80'
p4
aS'58.220.2.134:80'
p5
aS'58.220.2.135:80'
p6
aS'58.220.2.136:80'
p7
aS'58.220.2.137:80'
p8
aS'58.220.2.138:80'
p9
aS'58.220.2.139:80'
p10
aS'58.220.2.140:80'
p11
aS'58.220.2.141:80'
p12
aS'58.220.2.142:80'
p13
aS'58.220.2.145:80'
p14
aS'58.220.2.147:80'
p15
aS'58.220.2.148:80'
p16
aS'58.220.2.153:80'
p17
aS'58.220.2.156:80'
p18
aS'58.220.2.159:17183'
p19
aS'58.242.145.227:8080'
p20
aS'58.246.96.211:8080'
p21
aS'58.253.238.242:80'
p22
aS'58.253.238.243:80'
p23
aS'59.39.88.190:8080'
p24
aS'59.44.152.110:9999'
p25
aS'59.58.162.141:888'
p26
aS'59.61.79.124:8118'
p27
aS'59.127.154.78:80'
p28
aS'60.2.193.194:9797'
p29
aS'60.11.11.121:3128'
p30
aS'60.11.11.163:3128'
p31
aS'60.13.74.184:843'
p32
aS'60.15.56.67:3128'
p33
aS'60.29.248.142:8080'
p34
aS'60.191.148.76:3128'
p35
aS'60.191.158.211:3128'
p36
aS'60.191.164.22:3128'
p37
aS'60.191.164.59:3128'
p38
aS'60.191.166.130:3128'
p39
aS'60.191.167.11:3128'
p40
aS'60.191.167.93:3128'
p41
aS'60.191.170.52:3128'
p42
aS'60.191.180.38:3128'
p43
aS'60.213.189.170:3988'
p44
aS'61.130.97.212:8099'
p45
aS'61.156.217.81:80'
p46
aS'61.163.166.46:3128'
p47
aS'61.174.10.22:8080'
p48
aS'61.175.221.244:3128'
p49
aS'61.184.192.42:80'
p50
aS'101.66.253.22:8080'
p51
aS'101.71.27.120:80'
p52
aS'101.226.12.223:80'
p53
aS'101.226.249.237:80'
p54
aS'101.251.211.234:80'
p55
aS'106.37.177.251:3128'
p56
aS'106.38.251.62:8088'
p57
aS'106.38.251.63:8088'
p58
aS'110.17.172.150:3128'
p59
aS'111.11.255.11:80'
p60
aS'111.13.12.216:80'
p61
aS'111.13.109.8:80'
p62
aS'112.16.76.188:8080'
p63
aS'112.25.41.136:80'
p64
aS'112.84.130.10:80'
p65
aS'112.84.130.11:80'
p66
aS'112.84.130.14:80'
p67
aS'112.84.130.18:80'
p68
aS'112.84.130.31:80'
p69
aS'112.101.80.171:9797'
p70
aS'113.105.4.93:3128'
p71
aS'113.108.184.250:9797'
p72
aS'113.204.212.50:3128'
p73
aS'113.215.0.130:80'
p74
aS'113.215.0.130:82'
p75
aS'113.215.0.130:843'
p76
aS'114.35.53.171:80'
p77
aS'115.159.5.247:80'
p78
aS'115.159.5.247:8080'
p79
aS'115.182.83.38:8080'
p80
aS'115.238.225.26:80'
p81
aS'115.239.210.199:80'
p82
aS'117.59.224.106:8080'
p83
aS'117.78.21.7:8080'
p84
aS'117.158.1.210:9797'
p85
aS'117.158.1.210:9999'
p86
aS'117.158.98.214:80'
p87
aS'117.177.243.42:81'
p88
aS'117.177.243.42:82'
p89
aS'117.177.243.42:83'
p90
aS'117.177.243.42:84'
p91
aS'117.177.243.42:85'
p92
a.