(lp1
S'27.221.31.66:8080'
p2
aS'27.221.31.78:8080'
p3
aS'58.220.2.133:80'
p4
aS'58.220.2.134:80'
p5
aS'58.220.2.135:80'
p6
aS'58.220.2.136:80'
p7
aS'58.220.2.137:80'
p8
aS'58.220.2.138:80'
p9
aS'58.220.2.140:80'
p10
aS'58.220.2.141:80'
p11
aS'58.220.2.142:80'
p12
aS'58.220.2.147:80'
p13
aS'58.220.2.148:80'
p14
aS'58.220.2.156:80'
p15
aS'58.220.2.159:17183'
p16
aS'59.39.88.190:8080'
p17
aS'60.15.56.67:3128'
p18
aS'60.29.248.142:8080'
p19
aS'60.191.158.211:3128'
p20
aS'60.191.164.22:3128'
p21
aS'60.194.100.51:80'
p22
aS'61.174.10.22:8080'
p23
aS'61.175.221.244:3128'
p24
aS'101.66.253.22:8080'
p25
aS'101.226.249.237:80'
p26
aS'101.251.211.234:80'
p27
aS'106.38.251.62:8088'
p28
aS'106.38.251.63:8088'
p29
aS'111.11.200.83:80'
p30
aS'111.11.255.11:80'
p31
aS'111.13.12.216:80'
p32
aS'112.5.254.172:80'
p33
aS'112.25.41.136:80'
p34
aS'112.84.130.10:80'
p35
aS'112.84.130.11:80'
p36
aS'112.84.130.14:80'
p37
aS'112.84.130.18:80'
p38
aS'112.84.130.31:80'
p39
aS'115.159.5.247:8080'
p40
aS'115.182.83.38:8080'
p41
aS'115.231.65.15:8080'
p42
aS'115.231.65.16:8080'
p43
aS'115.231.158.51:80'
p44
aS'115.238.225.26:80'
p45
aS'116.228.80.186:8080'
p46
aS'117.156.15.19:80'
p47
aS'117.156.15.20:80'
p48
aS'117.156.15.23:80'
p49
aS'117.156.15.25:80'
p50
aS'117.177.243.42:81'
p51
aS'117.177.243.42:82'
p52
aS'117.177.243.42:83'
p53
aS'117.177.243.42:84'
p54
aS'117.177.243.42:86'
p55
aS'117.177.243.42:8080'
p56
aS'117.177.243.42:8081'
p57
aS'117.177.243.42:8082'
p58
aS'117.177.243.42:8083'
p59
aS'117.177.243.42:8084'
p60
aS'117.177.243.42:8085'
p61
aS'117.177.243.42:8086'
p62
aS'117.177.249.9:80'
p63
aS'118.26.226.157:3128'
p64
aS'118.244.239.2:3128'
p65
aS'119.147.161.55:3128'
p66
aS'120.192.92.99:80'
p67
aS'120.197.234.164:80'
p68
aS'122.141.243.131:80'
p69
aS'122.225.106.36:80'
p70
aS'123.157.99.139:3128'
p71
aS'124.200.100.50:8080'
p72
aS'124.206.167.250:3128'
p73
aS'125.39.17.91:3128'
p74
aS'180.97.185.35:10001'
p75
aS'182.140.132.103:8888'
p76
aS'182.254.153.54:80'
p77
aS'182.254.153.54:8080'
p78
aS'183.207.228.122:80'
p79
aS'183.207.232.119:8080'
p80
aS'183.207.232.119:9080'
p81
aS'183.207.232.193:8080'
p82
aS'183.207.232.194:8080'
p83
aS'183.207.232.194:9080'
p84
aS'202.106.16.36:3128'
p85
aS'203.195.162.96:80'
p86
aS'203.195.172.147:80'
p87
aS'211.90.28.102:80'
p88
aS'211.90.28.103:8088'
p89
aS'211.144.81.68:18001'
p90
aS'211.144.81.69:18000'
p91
aS'211.144.81.69:18001'
p92
aS'218.90.174.167:3128'
p93
aS'221.176.14.72:80'
p94
aS'222.188.100.203:8086'
p95
aS'222.188.100.204:8086'
p96
aS'222.246.232.55:80'
p97
aS'14.152.37.194:80'
p98
aS'60.191.179.53:3128'
p99
aS'117.156.15.22:80'
p100
aS'183.207.232.193:9080'
p101
aS'58.220.2.153:80'
p102
aS'122.70.178.242:8118'
p103
aS'183.232.32.100:3128'
p104
aS'101.4.136.104:9999'
p105
aS'101.26.38.162:80'
p106
aS'115.239.210.199:80'
p107
aS'117.156.15.21:80'
p108
aS'58.220.2.145:80'
p109
aS'60.191.161.244:3128'
p110
aS'58.220.2.132:80'
p111
aS'113.204.212.50:3128'
p112
aS'115.159.5.247:80'
p113
aS'58.96.183.136:8080'
p114
aS'58.253.238.242:80'
p115
aS'60.191.167.11:3128'
p116
aS'60.191.178.43:3128'
p117
aS'60.191.180.38:3128'
p118
aS'106.37.177.251:3128'
p119
aS'117.177.243.42:85'
p120
a.