(lp1
S'58.220.2.132:80'
p2
aS'58.220.2.133:80'
p3
aS'58.220.2.134:80'
p4
aS'58.220.2.135:80'
p5
aS'58.220.2.136:80'
p6
aS'58.220.2.137:80'
p7
aS'58.220.2.138:80'
p8
aS'58.220.2.139:80'
p9
aS'58.220.2.140:80'
p10
aS'58.220.2.141:80'
p11
aS'58.220.2.142:80'
p12
aS'58.220.2.147:80'
p13
aS'58.220.2.148:80'
p14
aS'58.220.2.153:80'
p15
aS'58.220.2.156:80'
p16
aS'58.220.2.159:17183'
p17
aS'58.242.145.227:8080'
p18
aS'58.246.96.211:8080'
p19
aS'58.253.238.243:80'
p20
aS'59.39.88.190:8080'
p21
aS'60.13.74.184:843'
p22
aS'60.15.56.67:3128'
p23
aS'60.29.248.142:8080'
p24
aS'60.191.146.245:3128'
p25
aS'60.191.158.211:3128'
p26
aS'60.191.164.22:3128'
p27
aS'60.191.166.130:3128'
p28
aS'60.191.167.93:3128'
p29
aS'60.191.170.52:3128'
p30
aS'60.191.178.43:3128'
p31
aS'60.191.179.53:3128'
p32
aS'60.213.189.170:3988'
p33
aS'60.219.24.112:3128'
p34
aS'61.134.34.148:3128'
p35
aS'61.156.217.81:80'
p36
aS'61.174.10.22:8080'
p37
aS'61.175.221.244:3128'
p38
aS'61.184.192.42:80'
p39
aS'101.66.253.22:8080'
p40
aS'101.71.27.120:80'
p41
aS'101.226.249.237:80'
p42
aS'101.251.211.234:80'
p43
aS'106.37.177.251:3128'
p44
aS'106.38.251.62:8088'
p45
aS'106.38.251.63:8088'
p46
aS'111.11.255.11:80'
p47
aS'112.5.254.172:80'
p48
aS'112.16.76.188:8080'
p49
aS'112.25.41.136:80'
p50
aS'112.84.130.10:80'
p51
aS'112.84.130.11:80'
p52
aS'112.84.130.14:80'
p53
aS'112.84.130.18:80'
p54
aS'112.84.130.31:80'
p55
aS'113.204.212.50:3128'
p56
aS'113.215.0.130:80'
p57
aS'113.215.0.130:843'
p58
aS'115.159.5.247:80'
p59
aS'115.159.5.247:8080'
p60
aS'115.182.83.38:8080'
p61
aS'115.231.96.120:80'
p62
aS'115.238.225.26:80'
p63
aS'115.239.210.199:80'
p64
aS'117.59.224.106:8080'
p65
aS'117.158.98.214:80'
p66
aS'117.177.243.42:81'
p67
aS'117.177.243.42:82'
p68
aS'117.177.243.42:83'
p69
aS'117.177.243.42:84'
p70
aS'117.177.243.42:85'
p71
aS'117.177.243.42:86'
p72
aS'117.177.243.42:8080'
p73
aS'117.177.243.42:8081'
p74
aS'120.192.92.98:80'
p75
aS'120.192.92.99:80'
p76
aS'120.193.146.104:80'
p77
aS'120.194.215.70:80'
p78
aS'120.197.234.164:80'
p79
aS'120.198.243.144:80'
p80
aS'121.14.138.56:81'
p81
aS'121.69.8.234:8080'
p82
aS'122.96.59.99:80'
p83
aS'122.96.59.99:82'
p84
aS'122.96.59.99:83'
p85
aS'122.96.59.99:843'
p86
aS'122.96.59.106:80'
p87
aS'122.96.59.106:81'
p88
aS'122.96.59.106:82'
p89
aS'122.96.59.106:83'
p90
aS'122.96.59.106:843'
p91
aS'122.141.243.131:80'
p92
aS'122.225.106.35:80'
p93
aS'122.225.106.36:80'
p94
aS'123.125.104.240:80'
p95
aS'123.125.104.242:80'
p96
aS'124.88.67.6:80'
p97
aS'124.88.67.6:81'
p98
aS'124.88.67.6:82'
p99
aS'124.202.182.206:8118'
p100
aS'124.206.55.189:3128'
p101
aS'125.39.17.91:3128'
p102
aS'180.97.185.35:10001'
p103
aS'180.166.112.47:8888'
p104
aS'182.18.19.219:3128'
p105
aS'182.18.19.220:3128'
p106
aS'182.140.132.103:8888'
p107
aS'182.140.132.107:8888'
p108
aS'182.254.153.54:80'
p109
aS'182.254.153.54:8080'
p110
aS'183.136.135.154:8080'
p111
aS'183.207.232.119:8080'
p112
aS'183.207.232.193:8080'
p113
aS'183.207.232.194:8080'
p114
aS'183.224.77.75:3128'
p115
aS'183.232.32.100:3128'
p116
aS'202.106.16.36:3128'
p117
aS'203.195.162.96:8080'
p118
aS'203.195.172.147:80'
p119
aS'211.90.28.103:8088'
p120
aS'211.144.72.153:8080'
p121
aS'211.144.81.68:18000'
p122
aS'211.144.81.69:18000'
p123
aS'218.4.236.117:80'
p124
aS'218.9.69.2:8080'
p125
aS'218.77.97.173:3128'
p126
aS'218.78.210.190:8080'
p127
aS'218.90.174.167:3128'
p128
aS'219.142.192.196:552'
p129
aS'220.181.143.14:9999'
p130
aS'222.88.236.235:843'
p131
a.