(lp1
S'58.220.2.132:80'
p2
aS'58.220.2.134:80'
p3
aS'58.220.2.135:80'
p4
aS'58.220.2.136:80'
p5
aS'58.220.2.137:80'
p6
aS'58.220.2.138:80'
p7
aS'58.220.2.139:80'
p8
aS'58.220.2.141:80'
p9
aS'58.220.2.142:80'
p10
aS'58.220.2.145:80'
p11
aS'58.220.2.147:80'
p12
aS'58.220.2.148:80'
p13
aS'58.220.2.156:80'
p14
aS'58.242.145.227:8080'
p15
aS'58.246.96.211:8080'
p16
aS'58.253.238.243:80'
p17
aS'60.15.56.67:3128'
p18
aS'60.29.248.142:8080'
p19
aS'60.191.164.22:3128'
p20
aS'60.191.166.130:3128'
p21
aS'60.191.167.11:3128'
p22
aS'61.149.182.102:8080'
p23
aS'61.158.173.188:9797'
p24
aS'61.174.10.22:8080'
p25
aS'61.175.221.244:3128'
p26
aS'101.66.253.22:8080'
p27
aS'106.38.251.62:8088'
p28
aS'112.5.254.172:80'
p29
aS'112.84.130.10:80'
p30
aS'112.84.130.11:80'
p31
aS'112.84.130.14:80'
p32
aS'112.84.130.18:80'
p33
aS'113.215.0.130:80'
p34
aS'115.159.5.247:80'
p35
aS'115.238.225.26:80'
p36
aS'116.228.80.186:8080'
p37
aS'117.177.243.42:81'
p38
aS'117.177.243.42:82'
p39
aS'117.177.243.42:83'
p40
aS'117.177.243.42:84'
p41
aS'117.177.243.42:86'
p42
aS'117.177.243.42:8081'
p43
aS'117.177.243.42:8082'
p44
aS'117.177.243.42:8083'
p45
aS'117.177.243.42:8084'
p46
aS'117.177.243.42:8085'
p47
aS'118.244.239.2:3128'
p48
aS'119.6.144.74:843'
p49
aS'119.97.164.48:8085'
p50
aS'119.147.161.55:3128'
p51
aS'120.192.92.98:80'
p52
aS'120.192.92.99:80'
p53
aS'120.193.146.104:80'
p54
aS'120.198.243.144:80'
p55
aS'121.14.138.56:81'
p56
aS'121.43.187.19:8080'
p57
aS'121.69.8.234:8080'
p58
aS'122.72.18.160:80'
p59
aS'122.96.59.99:80'
p60
aS'122.96.59.99:82'
p61
aS'122.96.59.99:843'
p62
aS'122.96.59.106:81'
p63
aS'122.225.106.35:80'
p64
aS'122.226.62.90:3128'
p65
aS'122.226.142.52:3128'
p66
aS'123.125.104.240:80'
p67
aS'124.88.67.6:80'
p68
aS'182.254.153.54:80'
p69
aS'183.62.9.84:8080'
p70
aS'183.136.135.153:8080'
p71
aS'183.136.135.154:8080'
p72
aS'183.207.232.119:8080'
p73
aS'183.207.232.194:8080'
p74
aS'183.218.63.174:8118'
p75
aS'183.224.77.75:3128'
p76
aS'202.106.169.142:80'
p77
aS'202.108.35.151:80'
p78
aS'211.144.81.68:18000'
p79
aS'211.167.105.70:80'
p80
aS'218.4.236.117:80'
p81
aS'218.9.69.2:9797'
p82
aS'218.77.97.173:3128'
p83
aS'218.90.174.167:3128'
p84
aS'218.161.34.107:8080'
p85
aS'219.142.192.196:206'
p86
aS'219.142.192.196:715'
p87
aS'219.142.192.196:734'
p88
aS'219.142.192.196:744'
p89
aS'219.142.192.196:793'
p90
aS'219.142.192.196:816'
p91
aS'219.142.192.196:823'
p92
aS'219.142.192.196:866'
p93
aS'219.142.192.196:1447'
p94
aS'219.142.192.196:1457'
p95
aS'219.142.192.196:1504'
p96
aS'219.142.192.196:1513'
p97
aS'219.142.192.196:1959'
p98
aS'219.142.192.196:1998'
p99
aS'219.142.192.196:2461'
p100
aS'219.142.192.196:2488'
p101
aS'219.142.192.196:2510'
p102
aS'219.142.192.196:2779'
p103
aS'219.142.192.196:2819'
p104
aS'219.142.192.196:2849'
p105
aS'219.142.192.196:2949'
p106
aS'219.142.192.196:4345'
p107
aS'219.142.192.196:4757'
p108
aS'219.142.192.196:5587'
p109
aS'219.142.192.196:9000'
p110
aS'219.142.192.196:14472'
p111
aS'219.142.192.196:32676'
p112
aS'219.142.192.196:39330'
p113
aS'219.142.192.196:40820'
p114
aS'222.88.236.236:843'
p115
aS'223.99.254.99:80'
p116
aS'223.100.7.119:8080'
p117
aS'58.253.238.242:80'
p118
aS'59.34.115.118:3128'
p119
aS'60.219.24.112:3128'
p120
aS'106.37.177.251:3128'
p121
aS'113.204.212.50:3128'
p122
aS'115.159.5.247:8080'
p123
aS'119.6.144.74:81'
p124
aS'59.39.88.190:8080'
p125
aS'61.134.34.148:3128'
p126
aS'101.226.12.223:80'
p127
aS'110.153.9.250:80'
p128
aS'60.11.11.163:3128'
p129
aS'58.18.50.10:3128'
p130
aS'58.67.159.50:80'
p131
aS'60.191.148.76:3128'
p132
aS'112.101.80.171:9797'
p133
aS'218.6.126.149:3128'
p134
aS'218.9.69.2:8080'
p135
aS'221.7.206.140:80'
p136
aS'222.88.236.236:83'
p137
aS'203.91.121.74:3128'
p138
aS'27.221.31.66:8080'
p139
aS'42.159.243.22:8080'
p140
aS'42.159.245.162:8080'
p141
aS'58.133.61.3:3128'
p142
aS'58.220.10.7:80'
p143
aS'60.170.98.118:3128'
p144
aS'60.191.147.202:3128'
p145
aS'60.191.153.3:3128'
p146
aS'60.191.153.12:3128'
p147
aS'60.191.158.117:3128'
p148
aS'60.191.161.28:3128'
p149
aS'60.191.163.235:3128'
p150
aS'60.191.168.43:3128'
p151
aS'60.191.168.181:3128'
p152
aS'60.191.173.11:3128'
p153
aS'60.191.180.42:3128'
p154
aS'60.191.190.174:3128'
p155
aS'60.219.24.113:3128'
p156
aS'61.175.231.214:3128'
p157
aS'61.187.187.187:3128'
p158
aS'101.26.38.162:80'
p159
aS'106.39.160.121:80'
p160
aS'106.56.225.200:3128'
p161
aS'111.12.82.15:80'
p162
aS'111.12.82.16:80'
p163
aS'113.200.250.112:8080'
p164
aS'115.231.65.16:8080'
p165
aS'115.231.158.51:80'
p166
aS'115.231.158.51:3128'
p167
aS'115.231.162.216:3128'
p168
aS'117.156.15.19:80'
p169
aS'117.156.15.22:80'
p170
aS'117.156.15.23:80'
p171
aS'118.143.207.1:8080'
p172
aS'118.144.3.248:3128'
p173
aS'118.144.108.254:3128'
p174
aS'119.6.144.74:83'
p175
aS'120.198.236.10:8084'
p176
aS'122.96.59.102:81'
p177
aS'122.96.59.102:843'
p178
aS'122.96.59.105:83'
p179
aS'122.96.59.106:82'
p180
aS'122.226.128.251:3128'
p181
aS'122.226.141.67:3128'
p182
aS'122.226.142.59:3128'
p183
aS'122.226.156.220:3128'
p184
aS'123.157.99.139:3128'
p185
aS'124.88.67.14:80'
p186
aS'124.251.62.246:80'
p187
aS'125.39.17.91:3128'
p188
aS'125.93.183.200:3128'
p189
aS'180.166.112.47:8888'
p190
aS'202.102.233.96:80'
p191
aS'202.110.72.38:3128'
p192
aS'202.197.96.178:8000'
p193
aS'203.195.160.14:80'
p194
aS'218.75.0.148:3128'
p195
aS'221.206.209.79:3128'
p196
aS'222.88.208.132:3128'
p197
aS'223.94.2.245:9999'
p198
aS'219.142.192.196:5252'
p199
aS'219.142.192.196:1798'
p200
aS'219.142.192.196:1669'
p201
aS'101.251.211.234:80'
p202
aS'117.177.249.9:80'
p203
aS'122.96.59.99:81'
p204
aS'182.254.153.54:8080'
p205
aS'223.68.6.10:8000'
p206
aS'122.96.59.102:80'
p207
aS'123.125.104.242:80'
p208
aS'58.220.2.159:17183'
p209
aS'60.191.163.147:3128'
p210
aS'115.231.65.15:8080'
p211
aS'124.88.67.6:82'
p212
aS'221.176.14.72:80'
p213
aS'218.61.33.56:3128'
p214
aS'60.191.146.188:3128'
p215
aS'14.152.37.194:80'
p216
aS'122.226.168.180:3128'
p217
aS'219.142.192.196:4650'
p218
aS'60.191.161.244:3128'
p219
aS'124.126.126.105:80'
p220
aS'219.142.192.196:739'
p221
aS'222.140.4.8:9797'
p222
aS'117.177.243.42:85'
p223
aS'60.191.158.211:3128'
p224
aS'116.31.76.197:3128'
p225
aS'222.85.127.130:9797'
p226
aS'61.153.201.187:3128'
p227
aS'117.156.15.21:80'
p228
aS'203.195.162.96:8080'
p229
aS'122.96.59.102:83'
p230
aS'58.220.2.133:80'
p231
aS'58.220.2.140:80'
p232
aS'58.220.2.153:80'
p233
aS'59.58.162.141:888'
p234
aS'60.191.167.93:3128'
p235
aS'60.191.179.53:3128'
p236
aS'61.184.192.42:80'
p237
aS'101.71.27.120:80'
p238
aS'101.226.249.237:80'
p239
aS'106.38.251.63:8088'
p240
aS'111.13.109.52:80'
p241
aS'112.16.76.188:8080'
p242
aS'112.25.41.136:80'
p243
aS'112.84.130.31:80'
p244
aS'113.106.93.42:3128'
p245
aS'113.215.0.130:843'
p246
aS'115.231.96.120:80'
p247
aS'117.177.243.42:8080'
p248
aS'117.177.243.42:8086'
p249
aS'118.144.54.247:8118'
p250
aS'118.144.149.200:3128'
p251
aS'118.144.151.145:3128'
p252
aS'118.144.171.253:3128'
p253
aS'119.188.94.145:80'
p254
aS'120.197.234.164:80'
p255
aS'121.201.18.74:3128'
p256
aS'122.72.20.188:80'
p257
aS'122.72.124.42:80'
p258
aS'122.96.59.99:83'
p259
aS'122.96.59.102:82'
p260
aS'122.96.59.105:80'
p261
aS'122.96.59.105:81'
p262
aS'122.96.59.105:843'
p263
aS'122.96.59.106:80'
p264
aS'122.96.59.106:83'
p265
aS'122.96.59.106:843'
p266
aS'122.141.243.131:80'
p267
aS'124.88.67.6:81'
p268
aS'124.202.177.26:8118'
p269
aS'124.202.200.98:8118'
p270
aS'180.97.185.35:10001'
p271
aS'182.18.19.219:3128'
p272
aS'182.140.132.103:8888'
p273
aS'183.207.232.193:8080'
p274
aS'183.232.32.100:3128'
p275
aS'202.106.16.36:3128'
p276
aS'211.144.81.69:18000'
p277
aS'218.75.26.44:808'
p278
aS'219.133.31.120:8888'
p279
aS'220.181.143.14:9999'
p280
aS'220.249.185.178:9797'
p281
aS'220.249.185.178:9999'
p282
aS'221.193.240.119:3128'
p283
aS'221.237.154.57:9999'
p284
aS'222.88.236.235:843'
p285
aS'222.88.236.236:82'
p286
aS'223.100.98.44:8000'
p287
aS'103.233.147.98:8080'
p288
aS'202.108.23.247:80'
p289
a.