(lp1
S'58.220.2.132:80'
p2
aS'58.220.2.135:80'
p3
aS'58.220.2.137:80'
p4
aS'58.220.2.141:80'
p5
aS'58.220.2.145:80'
p6
aS'58.220.2.147:80'
p7
aS'58.242.145.227:8080'
p8
aS'58.253.238.243:80'
p9
aS'60.15.56.67:3128'
p10
aS'60.191.166.130:3128'
p11
aS'60.191.167.11:3128'
p12
aS'61.158.173.188:9797'
p13
aS'61.174.10.22:8080'
p14
aS'101.66.253.22:8080'
p15
aS'112.5.254.172:80'
p16
aS'112.84.130.10:80'
p17
aS'112.84.130.11:80'
p18
aS'112.84.130.18:80'
p19
aS'115.159.5.247:80'
p20
aS'115.238.225.26:80'
p21
aS'117.177.243.42:83'
p22
aS'117.177.243.42:8081'
p23
aS'117.177.243.42:8082'
p24
aS'117.177.243.42:8083'
p25
aS'117.177.243.42:8084'
p26
aS'117.177.243.42:8085'
p27
aS'118.244.239.2:3128'
p28
aS'120.192.92.99:80'
p29
aS'120.193.146.104:80'
p30
aS'121.14.138.56:81'
p31
aS'122.72.18.160:80'
p32
aS'122.96.59.99:80'
p33
aS'122.96.59.99:843'
p34
aS'122.96.59.106:81'
p35
aS'122.226.142.52:3128'
p36
aS'182.254.153.54:80'
p37
aS'219.142.192.196:734'
p38
aS'219.142.192.196:2849'
p39
aS'222.88.236.236:843'
p40
aS'223.99.254.99:80'
p41
aS'106.37.177.251:3128'
p42
aS'113.204.212.50:3128'
p43
aS'115.159.5.247:8080'
p44
aS'59.39.88.190:8080'
p45
aS'61.134.34.148:3128'
p46
aS'58.18.50.10:3128'
p47
aS'58.67.159.50:80'
p48
aS'218.6.126.149:3128'
p49
aS'222.88.236.236:83'
p50
aS'27.221.31.66:8080'
p51
aS'42.159.243.22:8080'
p52
aS'58.220.10.7:80'
p53
aS'60.191.153.12:3128'
p54
aS'60.191.158.117:3128'
p55
aS'60.191.163.235:3128'
p56
aS'60.191.173.11:3128'
p57
aS'60.191.180.42:3128'
p58
aS'60.191.190.174:3128'
p59
aS'101.26.38.162:80'
p60
aS'113.200.250.112:8080'
p61
aS'115.231.158.51:80'
p62
aS'115.231.158.51:3128'
p63
aS'115.231.162.216:3128'
p64
aS'118.143.207.1:8080'
p65
aS'118.144.3.248:3128'
p66
aS'122.96.59.102:81'
p67
aS'122.96.59.102:843'
p68
aS'122.96.59.106:82'
p69
aS'122.226.128.251:3128'
p70
aS'122.226.141.67:3128'
p71
aS'122.226.142.59:3128'
p72
aS'123.157.99.139:3128'
p73
aS'125.93.183.200:3128'
p74
aS'180.166.112.47:8888'
p75
aS'202.110.72.38:3128'
p76
aS'218.75.0.148:3128'
p77
aS'222.88.208.132:3128'
p78
aS'101.251.211.234:80'
p79
aS'117.177.249.9:80'
p80
aS'122.96.59.99:81'
p81
aS'182.254.153.54:8080'
p82
aS'122.96.59.102:80'
p83
aS'124.88.67.6:82'
p84
aS'221.176.14.72:80'
p85
aS'218.61.33.56:3128'
p86
aS'60.191.146.188:3128'
p87
aS'14.152.37.194:80'
p88
aS'122.226.168.180:3128'
p89
aS'117.177.243.42:85'
p90
aS'60.191.158.211:3128'
p91
aS'222.85.127.130:9797'
p92
aS'117.156.15.21:80'
p93
aS'203.195.162.96:8080'
p94
aS'122.96.59.102:83'
p95
aS'58.220.2.133:80'
p96
aS'58.220.2.140:80'
p97
aS'58.220.2.153:80'
p98
aS'60.191.167.93:3128'
p99
aS'112.25.41.136:80'
p100
aS'113.215.0.130:843'
p101
aS'115.231.96.120:80'
p102
aS'117.177.243.42:8080'
p103
aS'118.144.151.145:3128'
p104
aS'119.188.94.145:80'
p105
aS'122.72.124.42:80'
p106
aS'122.96.59.102:82'
p107
aS'122.96.59.105:843'
p108
aS'122.96.59.106:80'
p109
aS'122.96.59.106:83'
p110
aS'122.96.59.106:843'
p111
aS'122.141.243.131:80'
p112
aS'182.140.132.103:8888'
p113
aS'183.207.232.193:8080'
p114
aS'202.106.16.36:3128'
p115
aS'211.144.81.69:18000'
p116
aS'222.88.236.235:843'
p117
aS'222.88.236.236:82'
p118
aS'27.221.31.78:8080'
p119
aS'58.220.2.136:80'
p120
aS'58.220.2.139:80'
p121
aS'58.220.2.142:80'
p122
aS'58.220.2.148:80'
p123
aS'58.220.2.159:17183'
p124
aS'58.253.238.242:80'
p125
aS'59.58.162.141:888'
p126
aS'60.191.178.43:3128'
p127
aS'60.191.179.53:3128'
p128
aS'61.175.221.244:3128'
p129
aS'101.71.27.120:80'
p130
aS'106.38.251.62:8088'
p131
aS'106.38.251.63:8088'
p132
aS'111.11.200.83:80'
p133
aS'111.11.255.11:80'
p134
aS'111.13.109.52:80'
p135
aS'112.84.130.31:80'
p136
aS'113.215.0.130:80'
p137
aS'114.35.178.76:80'
p138
aS'115.182.83.38:8080'
p139
aS'115.231.65.16:8080'
p140
aS'116.228.80.186:8080'
p141
aS'117.156.15.20:80'
p142
aS'117.177.243.42:81'
p143
aS'117.177.243.42:86'
p144
aS'118.144.187.254:3128'
p145
aS'119.97.164.48:8085'
p146
aS'119.147.161.55:3128'
p147
aS'120.192.92.98:80'
p148
aS'120.197.234.164:80'
p149
aS'122.96.59.99:82'
p150
aS'122.96.59.99:83'
p151
aS'122.96.59.105:80'
p152
aS'122.96.59.105:81'
p153
aS'122.225.106.35:80'
p154
aS'123.125.104.242:80'
p155
aS'124.88.67.6:80'
p156
aS'124.126.126.105:80'
p157
aS'124.202.200.98:8118'
p158
aS'124.206.167.250:3128'
p159
aS'125.39.17.91:3128'
p160
aS'180.97.185.35:10001'
p161
aS'183.207.232.119:9080'
p162
aS'183.207.232.193:9080'
p163
aS'183.207.232.194:8080'
p164
aS'183.207.232.194:9080'
p165
aS'203.195.172.147:80'
p166
aS'211.90.28.103:8088'
p167
aS'211.137.32.222:80'
p168
aS'211.144.72.154:8080'
p169
aS'211.144.81.68:18001'
p170
aS'211.144.81.69:18001'
p171
aS'218.90.174.167:3128'
p172
aS'219.145.244.250:3128'
p173
aS'222.88.236.235:80'
p174
aS'42.159.245.162:8080'
p175
aS'112.84.130.14:80'
p176
aS'114.119.37.100:8080'
p177
aS'117.177.243.42:82'
p178
aS'117.177.243.42:84'
p179
aS'123.125.104.240:80'
p180
aS'124.88.67.6:81'
p181
aS'183.207.232.119:8080'
p182
aS'202.106.169.142:80'
p183
aS'218.77.83.89:3128'
p184
aS'60.219.24.125:3128'
p185
a.