(lp1
S'58.220.2.132:80'
p2
aS'58.220.2.134:80'
p3
aS'58.220.2.135:80'
p4
aS'58.220.2.136:80'
p5
aS'58.220.2.137:80'
p6
aS'58.220.2.138:80'
p7
aS'58.220.2.139:80'
p8
aS'58.220.2.141:80'
p9
aS'58.220.2.142:80'
p10
aS'58.220.2.145:80'
p11
aS'58.220.2.147:80'
p12
aS'58.220.2.148:80'
p13
aS'58.220.2.156:80'
p14
aS'58.242.145.227:8080'
p15
aS'58.246.96.211:8080'
p16
aS'58.253.238.243:80'
p17
aS'60.15.56.67:3128'
p18
aS'60.29.248.142:8080'
p19
aS'60.191.164.22:3128'
p20
aS'60.191.166.130:3128'
p21
aS'60.191.167.11:3128'
p22
aS'61.149.182.102:8080'
p23
aS'61.158.173.188:9797'
p24
aS'61.174.10.22:8080'
p25
aS'61.175.221.244:3128'
p26
aS'101.66.253.22:8080'
p27
aS'106.38.251.62:8088'
p28
aS'112.5.254.172:80'
p29
aS'112.84.130.10:80'
p30
aS'112.84.130.11:80'
p31
aS'112.84.130.14:80'
p32
aS'112.84.130.18:80'
p33
aS'113.215.0.130:80'
p34
aS'115.159.5.247:80'
p35
aS'115.238.225.26:80'
p36
aS'116.228.80.186:8080'
p37
aS'117.177.243.42:81'
p38
aS'117.177.243.42:82'
p39
aS'117.177.243.42:83'
p40
aS'117.177.243.42:84'
p41
aS'117.177.243.42:85'
p42
aS'117.177.243.42:86'
p43
aS'117.177.243.42:8081'
p44
aS'117.177.243.42:8082'
p45
aS'117.177.243.42:8083'
p46
aS'117.177.243.42:8084'
p47
aS'117.177.243.42:8085'
p48
aS'118.244.239.2:3128'
p49
aS'119.6.144.74:843'
p50
aS'119.97.164.48:8085'
p51
aS'119.147.161.55:3128'
p52
aS'120.192.92.98:80'
p53
aS'120.192.92.99:80'
p54
aS'120.193.146.104:80'
p55
aS'120.198.243.144:80'
p56
aS'121.14.138.56:81'
p57
aS'121.15.230.126:9797'
p58
aS'121.43.187.19:8080'
p59
aS'121.69.8.234:8080'
p60
aS'121.69.15.58:8118'
p61
aS'122.72.18.160:80'
p62
aS'122.96.59.99:80'
p63
aS'122.96.59.99:82'
p64
aS'122.96.59.99:843'
p65
aS'122.96.59.106:81'
p66
aS'122.225.106.35:80'
p67
aS'122.225.106.36:80'
p68
aS'122.226.62.90:3128'
p69
aS'122.226.142.52:3128'
p70
aS'123.125.104.240:80'
p71
aS'124.88.67.6:80'
p72
aS'124.200.100.50:8080'
p73
aS'182.254.153.54:80'
p74
aS'183.62.9.84:8080'
p75
aS'183.136.135.153:8080'
p76
aS'183.136.135.154:8080'
p77
aS'183.207.232.119:8080'
p78
aS'183.207.232.194:8080'
p79
aS'183.218.63.174:8118'
p80
aS'183.224.77.75:3128'
p81
aS'202.106.169.142:80'
p82
aS'202.108.35.151:80'
p83
aS'203.195.162.96:8080'
p84
aS'211.144.81.68:18000'
p85
aS'211.167.105.70:80'
p86
aS'218.4.236.117:80'
p87
aS'218.9.69.2:9797'
p88
aS'218.77.97.173:3128'
p89
aS'218.90.174.167:3128'
p90
aS'218.161.34.107:8080'
p91
aS'219.142.192.196:206'
p92
aS'219.142.192.196:715'
p93
aS'219.142.192.196:734'
p94
aS'219.142.192.196:739'
p95
aS'219.142.192.196:744'
p96
aS'219.142.192.196:793'
p97
aS'219.142.192.196:816'
p98
aS'219.142.192.196:823'
p99
aS'219.142.192.196:866'
p100
aS'219.142.192.196:919'
p101
aS'219.142.192.196:1447'
p102
aS'219.142.192.196:1457'
p103
aS'219.142.192.196:1504'
p104
aS'219.142.192.196:1513'
p105
aS'219.142.192.196:1704'
p106
aS'219.142.192.196:1959'
p107
aS'219.142.192.196:1998'
p108
aS'219.142.192.196:2461'
p109
aS'219.142.192.196:2488'
p110
aS'219.142.192.196:2510'
p111
aS'219.142.192.196:2779'
p112
aS'219.142.192.196:2819'
p113
aS'219.142.192.196:2849'
p114
aS'219.142.192.196:2949'
p115
aS'219.142.192.196:4345'
p116
aS'219.142.192.196:4351'
p117
aS'219.142.192.196:4757'
p118
aS'219.142.192.196:5587'
p119
aS'219.142.192.196:9000'
p120
aS'219.142.192.196:14472'
p121
aS'219.142.192.196:32676'
p122
aS'219.142.192.196:39330'
p123
aS'219.142.192.196:40820'
p124
aS'222.88.236.236:843'
p125
aS'223.99.254.99:80'
p126
aS'223.100.7.119:8080'
p127
aS'58.253.238.242:80'
p128
aS'59.34.115.118:3128'
p129
aS'60.191.158.211:3128'
p130
aS'60.219.24.112:3128'
p131
aS'106.37.177.251:3128'
p132
aS'113.204.212.50:3128'
p133
aS'115.159.5.247:8080'
p134
aS'119.6.144.74:81'
p135
aS'59.39.88.190:8080'
p136
aS'61.134.34.148:3128'
p137
aS'101.226.12.223:80'
p138
aS'110.153.9.250:80'
p139
aS'60.11.11.163:3128'
p140
aS'58.18.50.10:3128'
p141
aS'58.67.159.50:80'
p142
aS'60.191.148.76:3128'
p143
aS'112.101.80.171:9797'
p144
aS'218.6.126.149:3128'
p145
aS'218.9.69.2:8080'
p146
aS'221.7.206.140:80'
p147
aS'222.88.236.236:83'
p148
aS'203.91.121.74:3128'
p149
aS'27.221.31.66:8080'
p150
aS'42.159.243.22:8080'
p151
aS'42.159.245.162:8080'
p152
aS'58.133.61.3:3128'
p153
aS'58.220.10.7:80'
p154
aS'60.170.98.118:3128'
p155
aS'60.191.147.202:3128'
p156
aS'60.191.153.3:3128'
p157
aS'60.191.153.12:3128'
p158
aS'60.191.158.117:3128'
p159
aS'60.191.161.28:3128'
p160
aS'60.191.163.235:3128'
p161
aS'60.191.168.43:3128'
p162
aS'60.191.168.181:3128'
p163
aS'60.191.173.11:3128'
p164
aS'60.191.180.42:3128'
p165
aS'60.191.190.174:3128'
p166
aS'60.219.24.113:3128'
p167
aS'61.153.201.187:3128'
p168
aS'61.175.231.214:3128'
p169
aS'61.187.187.187:3128'
p170
aS'101.26.38.162:80'
p171
aS'106.39.160.121:80'
p172
aS'106.56.225.200:3128'
p173
aS'111.12.82.15:80'
p174
aS'111.12.82.16:80'
p175
aS'113.200.250.112:8080'
p176
aS'115.231.65.16:8080'
p177
aS'115.231.158.51:80'
p178
aS'115.231.158.51:3128'
p179
aS'115.231.162.216:3128'
p180
aS'116.31.76.197:3128'
p181
aS'117.156.15.19:80'
p182
aS'117.156.15.21:80'
p183
aS'117.156.15.22:80'
p184
aS'117.156.15.23:80'
p185
aS'118.143.207.1:8080'
p186
aS'118.144.3.248:3128'
p187
aS'118.144.108.254:3128'
p188
aS'119.6.144.74:83'
p189
aS'120.198.236.10:8084'
p190
aS'122.96.59.102:81'
p191
aS'122.96.59.102:83'
p192
aS'122.96.59.102:843'
p193
aS'122.96.59.105:83'
p194
aS'122.96.59.106:82'
p195
aS'122.226.128.251:3128'
p196
aS'122.226.141.67:3128'
p197
aS'122.226.142.59:3128'
p198
aS'122.226.156.220:3128'
p199
aS'123.157.99.139:3128'
p200
aS'124.88.67.14:80'
p201
aS'124.251.62.246:80'
p202
aS'125.39.17.91:3128'
p203
aS'125.93.183.200:3128'
p204
aS'180.166.112.47:8888'
p205
aS'202.102.233.96:80'
p206
aS'202.110.72.38:3128'
p207
aS'202.197.96.178:8000'
p208
aS'203.195.160.14:80'
p209
aS'218.26.237.18:3128'
p210
aS'218.75.0.148:3128'
p211
aS'221.206.209.79:3128'
p212
aS'222.88.208.132:3128'
p213
aS'223.94.2.245:9999'
p214
aS'219.142.192.196:5252'
p215
aS'219.142.192.196:211'
p216
aS'219.142.192.196:1798'
p217
aS'219.142.192.196:1669'
p218
aS'101.251.211.234:80'
p219
aS'117.177.249.9:80'
p220
aS'122.96.59.99:81'
p221
aS'182.254.153.54:8080'
p222
aS'222.140.4.8:9797'
p223
aS'223.68.6.10:8000'
p224
aS'122.96.59.102:80'
p225
aS'123.125.104.242:80'
p226
aS'58.220.2.159:17183'
p227
aS'60.191.163.147:3128'
p228
aS'115.231.65.15:8080'
p229
aS'124.88.67.6:82'
p230
aS'221.176.14.72:80'
p231
aS'218.61.33.56:3128'
p232
aS'60.191.146.188:3128'
p233
aS'222.85.127.130:9797'
p234
aS'14.152.37.194:80'
p235
aS'122.226.168.180:3128'
p236
aS'219.142.192.196:4650'
p237
aS'60.191.161.244:3128'
p238
aS'124.126.126.105:80'
p239
a.