(lp1
S'203.195.162.96:8080'
p2
aS'113.215.0.130:843'
p3
aS'27.221.31.78:8080'
p4
aS'58.220.2.133:80'
p5
aS'58.220.2.135:80'
p6
aS'58.220.2.140:80'
p7
aS'58.220.2.142:80'
p8
aS'58.220.2.148:80'
p9
aS'60.15.56.67:3128'
p10
aS'60.191.164.22:3128'
p11
aS'101.66.253.22:8080'
p12
aS'203.195.162.96:80'
p13
aS'211.137.32.222:80'
p14
aS'211.144.81.69:18000'
p15
aS'222.88.236.235:843'
p16
aS'112.84.130.18:80'
p17
aS'115.159.5.247:8080'
p18
aS'115.231.65.15:8080'
p19
aS'117.156.15.20:80'
p20
aS'117.156.15.23:80'
p21
aS'117.177.243.42:85'
p22
aS'117.177.243.42:8081'
p23
aS'117.177.249.9:80'
p24
aS'119.147.161.55:3128'
p25
aS'120.197.234.164:80'
p26
aS'122.96.59.99:80'
p27
aS'122.96.59.102:82'
p28
aS'122.96.59.102:83'
p29
aS'122.96.59.106:81'
p30
aS'122.96.59.106:843'
p31
aS'122.225.106.35:80'
p32
aS'122.225.106.36:80'
p33
aS'123.157.99.139:3128'
p34
aS'180.166.112.47:8888'
p35
aS'183.207.232.193:9080'
p36
aS'218.77.97.173:3128'
p37
aS'27.221.31.66:8080'
p38
aS'58.220.2.134:80'
p39
aS'58.220.2.136:80'
p40
aS'58.220.2.137:80'
p41
aS'58.220.2.139:80'
p42
aS'58.220.2.141:80'
p43
aS'58.220.2.145:80'
p44
aS'58.220.2.147:80'
p45
aS'58.220.2.159:17183'
p46
aS'60.191.158.211:3128'
p47
aS'60.191.167.93:3128'
p48
aS'106.37.177.251:3128'
p49
aS'203.195.160.14:80'
p50
aS'203.195.172.147:80'
p51
aS'211.144.81.68:18001'
p52
aS'221.176.14.72:80'
p53
aS'222.88.236.236:83'
p54
aS'222.88.236.236:843'
p55
aS'223.68.6.10:8000'
p56
aS'111.11.200.83:80'
p57
aS'111.11.255.11:80'
p58
aS'111.13.109.52:80'
p59
aS'112.25.41.136:80'
p60
aS'112.84.130.10:80'
p61
aS'112.84.130.11:80'
p62
aS'113.200.250.112:8080'
p63
aS'113.204.212.50:3128'
p64
aS'115.182.83.38:8080'
p65
aS'115.238.225.26:80'
p66
aS'116.228.80.186:8080'
p67
aS'117.156.15.25:80'
p68
aS'117.177.243.42:82'
p69
aS'117.177.243.42:83'
p70
aS'117.177.243.42:86'
p71
aS'117.177.243.42:8080'
p72
aS'117.177.243.42:8083'
p73
aS'117.177.243.42:8084'
p74
aS'117.177.243.42:8085'
p75
aS'118.244.239.2:3128'
p76
aS'120.192.92.98:80'
p77
aS'120.192.92.99:80'
p78
aS'120.193.146.104:80'
p79
aS'122.70.178.242:8118'
p80
aS'122.96.59.99:82'
p81
aS'122.96.59.99:843'
p82
aS'122.96.59.102:80'
p83
aS'122.96.59.106:83'
p84
aS'122.141.243.131:80'
p85
aS'180.97.185.35:10001'
p86
aS'182.140.132.103:8888'
p87
aS'182.254.153.54:8080'
p88
aS'183.207.232.119:8080'
p89
aS'183.207.232.119:9080'
p90
aS'183.207.232.194:8080'
p91
aS'183.232.32.100:3128'
p92
aS'218.90.174.167:3128'
p93
aS'14.152.37.194:80'
p94
aS'58.220.2.153:80'
p95
aS'59.39.88.190:8080'
p96
aS'202.106.16.36:3128'
p97
aS'211.71.30.97:3128'
p98
aS'211.90.28.102:80'
p99
aS'221.229.252.98:8080'
p100
aS'222.246.232.55:8101'
p101
aS'60.191.167.11:3128'
p102
aS'117.156.15.19:80'
p103
aS'117.177.243.42:84'
p104
aS'122.96.59.102:81'
p105
aS'122.96.59.105:843'
p106
aS'123.125.104.240:80'
p107
aS'124.206.167.250:3128'
p108
aS'182.92.104.79:3128'
p109
aS'182.254.153.54:80'
p110
aS'211.167.105.70:80'
p111
aS'222.88.236.236:81'
p112
aS'1.255.53.81:80'
p113
aS'58.220.2.132:80'
p114
aS'58.220.2.138:80'
p115
aS'58.253.238.242:80'
p116
aS'59.34.115.118:3128'
p117
aS'60.29.248.142:8080'
p118
aS'60.191.161.244:3128'
p119
aS'60.191.178.43:3128'
p120
aS'60.191.179.53:3128'
p121
aS'60.194.100.51:80'
p122
aS'61.149.182.102:8080'
p123
aS'61.174.10.22:8080'
p124
aS'91.220.124.35:80'
p125
aS'101.26.38.162:80'
p126
aS'101.226.12.223:80'
p127
aS'101.226.249.237:80'
p128
aS'106.38.251.62:8088'
p129
aS'106.38.251.63:8088'
p130
aS'203.162.69.22:3128'
p131
aS'211.90.28.103:8088'
p132
aS'211.144.81.68:18000'
p133
aS'211.144.81.69:18001'
p134
aS'218.6.126.149:3128'
p135
aS'218.77.83.89:3128'
p136
aS'220.248.224.242:8089'
p137
aS'221.229.252.98:9797'
p138
aS'58.59.68.91:9797'
p139
aS'58.210.14.154:3128'
p140
aS'60.191.170.52:3128'
p141
aS'111.13.12.216:80'
p142
aS'112.84.130.14:80'
p143
aS'112.84.130.31:80'
p144
aS'114.35.178.76:80'
p145
aS'115.159.5.247:80'
p146
aS'115.231.65.16:8080'
p147
aS'117.156.15.22:80'
p148
aS'117.177.243.42:81'
p149
aS'117.177.243.42:8082'
p150
aS'117.177.243.42:8086'
p151
aS'119.97.164.48:8085'
p152
aS'121.14.138.56:81'
p153
aS'121.17.1.69:3128'
p154
aS'122.72.18.160:80'
p155
aS'122.72.20.188:80'
p156
aS'122.96.59.99:83'
p157
aS'122.96.59.102:843'
p158
aS'125.39.17.91:3128'
p159
aS'183.62.9.84:8080'
p160
aS'183.207.228.122:80'
p161
aS'183.207.232.193:8080'
p162
aS'183.207.232.194:9080'
p163
aS'218.9.69.2:8080'
p164
aS'222.88.236.236:82'
p165
a.