(lp1
S'58.220.2.132:80'
p2
aS'58.220.2.133:80'
p3
aS'58.220.2.134:80'
p4
aS'58.220.2.135:80'
p5
aS'58.220.2.136:80'
p6
aS'58.220.2.137:80'
p7
aS'58.220.2.138:80'
p8
aS'58.220.2.139:80'
p9
aS'58.220.2.140:80'
p10
aS'58.220.2.141:80'
p11
aS'58.220.2.142:80'
p12
aS'58.220.2.145:80'
p13
aS'58.220.2.147:80'
p14
aS'58.220.2.148:80'
p15
aS'58.220.2.153:80'
p16
aS'58.220.2.156:80'
p17
aS'58.220.2.159:17183'
p18
aS'58.242.145.227:8080'
p19
aS'58.246.96.211:8080'
p20
aS'58.253.238.243:80'
p21
aS'59.58.162.141:888'
p22
aS'60.15.56.67:3128'
p23
aS'60.29.248.142:8080'
p24
aS'60.191.163.147:3128'
p25
aS'60.191.164.22:3128'
p26
aS'60.191.166.130:3128'
p27
aS'60.191.167.11:3128'
p28
aS'60.191.167.93:3128'
p29
aS'60.191.170.52:3128'
p30
aS'61.149.182.102:8080'
p31
aS'61.158.173.188:9797'
p32
aS'61.174.10.22:8080'
p33
aS'61.175.221.244:3128'
p34
aS'61.184.192.42:80'
p35
aS'101.66.253.22:8080'
p36
aS'101.71.27.120:80'
p37
aS'101.226.249.237:80'
p38
aS'101.251.211.234:80'
p39
aS'106.38.251.62:8088'
p40
aS'106.38.251.63:8088'
p41
aS'111.11.255.11:80'
p42
aS'111.13.109.52:80'
p43
aS'112.5.254.172:80'
p44
aS'112.16.76.188:8080'
p45
aS'112.84.130.10:80'
p46
aS'112.84.130.11:80'
p47
aS'112.84.130.14:80'
p48
aS'112.84.130.18:80'
p49
aS'112.84.130.31:80'
p50
aS'113.215.0.130:80'
p51
aS'113.215.0.130:82'
p52
aS'113.215.0.130:843'
p53
aS'115.159.5.247:80'
p54
aS'115.182.83.38:8080'
p55
aS'115.231.96.120:80'
p56
aS'115.238.225.26:80'
p57
aS'116.228.80.186:8080'
p58
aS'117.59.224.106:8080'
p59
aS'117.158.98.214:80'
p60
aS'117.177.243.42:81'
p61
aS'117.177.243.42:82'
p62
aS'117.177.243.42:83'
p63
aS'117.177.243.42:84'
p64
aS'117.177.243.42:85'
p65
aS'117.177.243.42:86'
p66
aS'117.177.243.42:8080'
p67
aS'117.177.243.42:8081'
p68
aS'117.177.243.42:8082'
p69
aS'117.177.243.42:8083'
p70
aS'117.177.243.42:8084'
p71
aS'117.177.243.42:8085'
p72
aS'117.177.243.42:8086'
p73
aS'117.177.249.9:80'
p74
aS'118.144.149.200:3128'
p75
aS'118.244.239.2:3128'
p76
aS'119.6.144.74:80'
p77
aS'119.6.144.74:82'
p78
aS'119.6.144.74:843'
p79
aS'119.97.164.48:8085'
p80
aS'119.147.161.55:3128'
p81
aS'120.192.92.98:80'
p82
aS'120.192.92.99:80'
p83
aS'120.193.146.104:80'
p84
aS'120.197.234.164:80'
p85
aS'120.198.243.144:80'
p86
aS'121.14.138.56:81'
p87
aS'121.15.230.126:9797'
p88
aS'121.43.187.19:8080'
p89
aS'121.69.8.234:8080'
p90
aS'121.69.15.58:8118'
p91
aS'122.72.18.160:80'
p92
aS'122.96.59.99:80'
p93
aS'122.96.59.99:81'
p94
aS'122.96.59.99:82'
p95
aS'122.96.59.99:83'
p96
aS'122.96.59.99:843'
p97
aS'122.96.59.106:80'
p98
aS'122.96.59.106:81'
p99
aS'122.96.59.106:83'
p100
aS'122.96.59.106:843'
p101
aS'122.141.243.131:80'
p102
aS'122.225.106.35:80'
p103
aS'122.225.106.36:80'
p104
aS'122.226.62.90:3128'
p105
aS'122.226.142.52:3128'
p106
aS'123.125.104.240:80'
p107
aS'124.88.67.6:80'
p108
aS'124.88.67.6:81'
p109
aS'124.200.100.50:8080'
p110
aS'124.202.183.178:8118'
p111
aS'124.202.200.98:8118'
p112
aS'171.8.68.117:8080'
p113
aS'180.97.185.35:10001'
p114
aS'182.140.132.103:8888'
p115
aS'182.140.132.107:8888'
p116
aS'182.254.153.54:80'
p117
aS'182.254.153.54:8080'
p118
aS'183.62.9.84:8080'
p119
aS'183.136.135.153:8080'
p120
aS'183.136.135.154:8080'
p121
aS'183.207.232.119:8080'
p122
aS'183.207.232.193:8080'
p123
aS'183.207.232.194:8080'
p124
aS'183.218.63.174:8118'
p125
aS'183.224.77.75:3128'
p126
aS'183.232.32.100:3128'
p127
aS'202.106.16.36:3128'
p128
aS'202.106.169.142:80'
p129
aS'202.108.35.151:80'
p130
aS'203.91.121.74:3128'
p131
aS'203.195.162.96:8080'
p132
aS'203.195.172.147:80'
p133
aS'211.90.28.102:80'
p134
aS'211.90.28.103:8088'
p135
aS'211.144.81.68:18000'
p136
aS'211.144.81.69:18000'
p137
aS'211.167.105.70:80'
p138
aS'218.4.236.117:80'
p139
aS'218.9.69.2:9797'
p140
aS'218.77.97.173:3128'
p141
aS'218.90.174.167:3128'
p142
aS'218.161.34.107:8080'
p143
aS'219.142.192.196:182'
p144
aS'219.142.192.196:198'
p145
aS'219.142.192.196:205'
p146
aS'219.142.192.196:206'
p147
aS'219.142.192.196:211'
p148
aS'219.142.192.196:376'
p149
aS'219.142.192.196:392'
p150
aS'219.142.192.196:412'
p151
aS'219.142.192.196:414'
p152
aS'219.142.192.196:552'
p153
aS'219.142.192.196:557'
p154
aS'219.142.192.196:582'
p155
aS'219.142.192.196:595'
p156
aS'219.142.192.196:715'
p157
aS'219.142.192.196:734'
p158
aS'219.142.192.196:739'
p159
aS'219.142.192.196:744'
p160
aS'219.142.192.196:793'
p161
aS'219.142.192.196:801'
p162
aS'219.142.192.196:803'
p163
aS'219.142.192.196:816'
p164
aS'219.142.192.196:823'
p165
aS'219.142.192.196:824'
p166
aS'219.142.192.196:866'
p167
aS'219.142.192.196:875'
p168
aS'219.142.192.196:919'
p169
aS'219.142.192.196:922'
p170
aS'219.142.192.196:957'
p171
aS'219.142.192.196:965'
p172
aS'219.142.192.196:1447'
p173
aS'219.142.192.196:1457'
p174
aS'219.142.192.196:1504'
p175
aS'219.142.192.196:1513'
p176
aS'219.142.192.196:1550'
p177
aS'219.142.192.196:1669'
p178
aS'219.142.192.196:1691'
p179
aS'219.142.192.196:1704'
p180
aS'219.142.192.196:1798'
p181
aS'219.142.192.196:1821'
p182
aS'219.142.192.196:1944'
p183
aS'219.142.192.196:1959'
p184
aS'219.142.192.196:1998'
p185
aS'219.142.192.196:2461'
p186
aS'219.142.192.196:2488'
p187
aS'219.142.192.196:2510'
p188
aS'219.142.192.196:2558'
p189
aS'219.142.192.196:2664'
p190
aS'219.142.192.196:2779'
p191
aS'219.142.192.196:2819'
p192
aS'219.142.192.196:2829'
p193
aS'219.142.192.196:2849'
p194
aS'219.142.192.196:2898'
p195
aS'219.142.192.196:2949'
p196
aS'219.142.192.196:3680'
p197
aS'219.142.192.196:3747'
p198
aS'219.142.192.196:4345'
p199
aS'219.142.192.196:4351'
p200
aS'219.142.192.196:4590'
p201
aS'219.142.192.196:4650'
p202
aS'219.142.192.196:4757'
p203
aS'219.142.192.196:4930'
p204
aS'219.142.192.196:5176'
p205
aS'219.142.192.196:5252'
p206
aS'219.142.192.196:5587'
p207
aS'219.142.192.196:5685'
p208
aS'219.142.192.196:9000'
p209
aS'219.142.192.196:12317'
p210
aS'219.142.192.196:14472'
p211
aS'219.142.192.196:21592'
p212
aS'219.142.192.196:32002'
p213
aS'219.142.192.196:32545'
p214
aS'219.142.192.196:32676'
p215
aS'219.142.192.196:34831'
p216
aS'219.142.192.196:39330'
p217
aS'219.142.192.196:40820'
p218
aS'219.142.192.196:48852'
p219
aS'219.142.192.196:60503'
p220
aS'220.181.143.14:9999'
p221
aS'221.176.14.72:80'
p222
aS'222.88.236.236:843'
p223
aS'222.140.4.8:9797'
p224
aS'223.68.6.10:8000'
p225
aS'223.99.254.99:80'
p226
aS'223.100.7.119:8080'
p227
aS'58.210.14.154:3128'
p228
aS'58.253.238.242:80'
p229
aS'59.34.115.118:3128'
p230
aS'60.191.158.211:3128'
p231
aS'60.191.161.244:3128'
p232
aS'60.219.24.112:3128'
p233
aS'106.37.177.251:3128'
p234
aS'112.25.41.136:80'
p235
aS'113.204.212.50:3128'
p236
aS'115.159.5.247:8080'
p237
aS'115.239.210.199:80'
p238
aS'119.6.144.74:81'
p239
aS'59.39.88.190:8080'
p240
aS'61.134.34.148:3128'
p241
aS'101.226.12.223:80'
p242
aS'110.153.9.250:80'
p243
aS'60.11.11.163:3128'
p244
aS'60.219.24.125:3128'
p245
aS'111.13.12.216:80'
p246
aS'58.18.50.10:3128'
p247
aS'58.67.159.50:80'
p248
aS'60.191.148.76:3128'
p249
aS'60.191.164.59:3128'
p250
aS'60.191.179.53:3128'
p251
aS'112.101.80.171:9797'
p252
aS'218.6.126.149:3128'
p253
aS'218.9.69.2:8080'
p254
aS'218.61.33.56:3128'
p255
aS'220.181.32.106:80'
p256
aS'221.7.206.140:80'
p257
aS'222.85.127.130:9797'
p258
aS'222.88.236.236:83'
p259
a.