(lp1
S'218.213.166.218:81'
p2
aS'221.176.14.72:80'
p3
aS'120.52.73.36:8080'
p4
aS'120.52.73.42:8081'
p5
aS'121.69.31.146:8118'
p6
aS'210.39.18.236:8080'
p7
aS'115.183.26.6:8118'
p8
aS'101.66.253.22:8080'
p9
aS'121.14.138.56:81'
p10
aS'58.253.238.242:80'
p11
aS'222.188.100.204:8086'
p12
aS'60.29.248.142:8080'
p13
aS'183.207.228.122:80'
p14
aS'124.206.133.227:80'
p15
aS'202.103.215.199:80'
p16
aS'115.238.225.26:80'
p17
aS'122.225.106.35:80'
p18
aS'120.197.234.164:80'
p19
aS'111.13.12.216:80'
p20
aS'120.131.128.211:80'
p21
aS'116.211.19.201:8008'
p22
aS'60.216.40.135:9999'
p23
aS'119.147.161.55:3128'
p24
aS'136.0.16.217:7808'
p25
aS'202.196.116.247:80'
p26
aS'186.225.44.53:8080'
p27
aS'210.173.226.58:80'
p28
aS'81.94.162.140:8080'
p29
aS'64.26.95.14:8080'
p30
aS'195.154.231.43:3128'
p31
aS'185.28.193.95:8080'
p32
aS'117.177.250.153:81'
p33
aS'202.102.233.94:80'
p34
aS'101.110.118.60:80'
p35
aS'218.92.227.168:23239'
p36
aS'120.52.73.35:8081'
p37
aS'60.191.175.54:3128'
p38
aS'121.69.23.134:8118'
p39
aS'203.142.91.11:8080'
p40
aS'113.204.212.50:3128'
p41
aS'118.26.62.234:3128'
p42
aS'118.26.143.202:3128'
p43
aS'101.251.199.66:3128'
p44
aS'101.200.234.114:8080'
p45
aS'107.151.142.114:80'
p46
aS'200.76.191.213:3128'
p47
aS'110.52.232.75:80'
p48
aS'183.223.24.122:8000'
p49
aS'202.100.167.144:80'
p50
aS'120.52.73.28:8080'
p51
aS'120.194.220.250:8000'
p52
aS'120.52.72.44:80'
p53
aS'117.177.250.153:8080'
p54
aS'210.101.131.232:8080'
p55
aS'119.188.94.145:80'
p56
aS'111.248.107.160:3128'
p57
aS'203.91.121.74:3128'
p58
aS'120.52.73.38:80'
p59
aS'218.92.227.165:24524'
p60
aS'60.191.167.93:3128'
p61
aS'188.39.148.166:8080'
p62
aS'124.207.175.91:8080'
p63
aS'60.191.146.188:3128'
p64
aS'117.57.168.25:8000'
p65
aS'115.47.57.50:3128'
p66
aS'203.91.121.76:3128'
p67
aS'121.17.1.70:3128'
p68
aS'60.191.130.36:3128'
p69
aS'203.192.12.146:80'
p70
aS'36.250.69.4:80'
p71
aS'123.51.170.57:80'
p72
aS'183.111.169.208:3128'
p73
aS'133.242.209.53:80'
p74
aS'187.49.112.38:8080'
p75
aS'207.28.38.2:3128'
p76
aS'43.243.112.87:3128'
p77
aS'117.177.250.148:80'
p78
aS'101.110.118.72:80'
p79
aS'223.100.98.44:8000'
p80
aS'120.52.73.22:8081'
p81
aS'111.63.38.36:3129'
p82
aS'120.52.73.38:8080'
p83
aS'120.198.231.23:80'
p84
aS'120.52.72.56:80'
p85
aS'117.177.250.148:8080'
p86
aS'120.52.73.36:80'
p87
aS'120.52.72.24:80'
p88
aS'120.52.73.26:8080'
p89
aS'106.2.100.228:3128'
p90
aS'220.249.185.178:9999'
p91
aS'123.126.108.190:3128'
p92
aS'59.61.80.78:9999'
p93
aS'218.56.132.154:8080'
p94
aS'121.52.240.13:80'
p95
aS'218.57.236.103:3128'
p96
aS'119.97.164.48:8085'
p97
aS'211.90.28.103:8088'
p98
aS'58.67.159.50:80'
p99
aS'185.118.24.30:8089'
p100
aS'27.254.47.203:80'
p101
aS'74.143.193.83:3128'
p102
aS'58.133.61.3:3128'
p103
aS'182.162.141.7:80'
p104
aS'128.112.48.41:3128'
p105
aS'117.177.250.147:81'
p106
aS'120.52.73.25:80'
p107
aS'101.110.118.64:80'
p108
aS'112.16.87.24:80'
p109
aS'183.111.169.206:3128'
p110
aS'27.131.47.132:8080'
p111
aS'222.88.142.51:8000'
p112
aS'104.202.117.243:80'
p113
aS'87.117.11.24:80'
p114
aS'54.68.135.82:80'
p115
aS'124.251.62.246:80'
p116
aS'114.42.189.127:8080'
p117
aS'112.112.16.125:3128'
p118
aS'222.85.127.130:9999'
p119
aS'50.254.4.194:3128'
p120
aS'1.255.102.4:3128'
p121
aS'220.176.211.119:3128'
p122
aS'124.207.132.242:3128'
p123
aS'221.212.36.245:1148'
p124
aS'123.54.1.41:80'
p125
aS'123.157.155.58:8000'
p126
aS'58.16.145.184:80'
p127
aS'123.54.0.18:8000'
p128
aS'222.88.182.52:8000'
p129
aS'157.122.156.98:8000'
p130
aS'202.106.16.36:3128'
p131
aS'60.195.250.55:80'
p132
aS'61.223.119.182:3128'
p133
aS'51.254.57.191:8080'
p134
aS'115.46.88.61:80'
p135
aS'118.97.66.2:80'
p136
aS'222.34.3.10:8080'
p137
aS'59.13.211.166:8088'
p138
aS'123.56.226.126:3128'
p139
aS'125.26.179.63:8080'
p140
aS'80.241.55.170:3128'
p141
aS'198.46.149.175:8080'
p142
aS'52.79.47.173:3128'
p143
aS'104.167.105.222:3128'
p144
aS'121.58.199.139:3128'
p145
aS'108.61.203.62:3128'
p146
aS'120.52.72.49:80'
p147
aS'101.201.197.31:3128'
p148
aS'222.34.3.11:8080'
p149
aS'58.23.16.241:80'
p150
aS'210.82.92.77:3128'
p151
aS'121.201.18.74:3128'
p152
aS'146.0.72.70:3128'
p153
aS'152.249.252.143:3128'
p154
aS'111.47.171.41:8000'
p155
aS'183.247.166.176:80'
p156
aS'1.197.77.79:8000'
p157
aS'58.252.8.25:8000'
p158
aS'58.22.86.44:8000'
p159
aS'58.22.191.243:80'
p160
aS'117.177.250.154:80'
p161
aS'202.100.167.149:80'
p162
aS'202.100.167.160:80'
p163
aS'61.162.184.7:8080'
p164
aS'222.176.112.31:80'
p165
aS'45.32.192.44:8080'
p166
aS'91.185.226.71:3128'
p167
aS'210.1.81.52:80'
p168
aS'223.68.190.136:8000'
p169
aS'31.173.74.73:8080'
p170
aS'60.250.81.97:80'
p171
aS'222.42.1.130:18000'
p172
aS'218.28.238.165:3128'
p173
aS'124.89.33.109:9999'
p174
aS'108.61.217.140:8080'
p175
aS'46.101.87.21:8080'
p176
aS'104.238.181.43:8080'
p177
aS'43.243.112.78:3128'
p178
aS'101.110.118.61:80'
p179
aS'220.175.104.7:9999'
p180
aS'111.47.171.41:80'
p181
aS'58.20.232.239:8000'
p182
aS'122.225.106.36:80'
p183
aS'181.48.0.173:8081'
p184
aS'211.144.81.69:18000'
p185
aS'222.83.14.145:3128'
p186
aS'118.163.72.75:3128'
p187
aS'134.213.145.228:8080'
p188
aS'128.199.38.11:8080'
p189
aS'98.226.154.95:8080'
p190
aS'125.2.138.77:3128'
p191
aS'125.178.174.75:3128'
p192
aS'202.21.117.102:8080'
p193
aS'116.31.76.163:3128'
p194
aS'58.42.208.244:3128'
p195
aS'119.6.55.190:80'
p196
aS'121.40.108.76:80'
p197
aS'45.63.106.123:8080'
p198
aS'104.207.140.168:8080'
p199
aS'182.74.243.43:3128'
p200
aS'178.33.191.53:3128'
p201
aS'66.96.232.100:3128'
p202
aS'89.218.214.106:9090'
p203
aS'115.28.7.20:81'
p204
aS'45.63.61.60:8080'
p205
aS'183.89.98.161:3128'
p206
aS'80.237.123.206:8080'
p207
aS'159.182.107.148:80'
p208
aS'112.90.72.83:80'
p209
aS'211.110.127.210:3128'
p210
aS'120.194.85.49:8000'
p211
aS'61.53.65.52:3128'
p212
aS'120.52.72.60:80'
p213
aS'69.143.93.173:3128'
p214
aS'173.9.105.163:3128'
p215
aS'101.251.245.162:3128'
p216
aS'124.240.184.41:8080'
p217
aS'188.165.141.151:80'
p218
aS'83.69.106.65:3128'
p219
aS'120.52.72.43:80'
p220
aS'221.7.216.48:80'
p221
aS'222.89.167.66:8000'
p222
aS'183.247.158.188:80'
p223
aS'120.52.72.45:80'
p224
aS'1.193.162.91:8000'
p225
aS'113.195.134.91:8000'
p226
aS'122.226.128.251:3128'
p227
aS'221.4.245.242:80'
p228
aS'120.52.72.36:80'
p229
aS'202.164.38.11:8080'
p230
aS'121.69.25.58:8118'
p231
aS'120.25.61.136:80'
p232
aS'220.136.203.45:80'
p233
aS'101.201.196.64:3128'
p234
aS'221.204.102.14:9797'
p235
aS'124.16.173.23:3128'
p236
aS'103.42.56.85:3128'
p237
aS'46.218.85.101:3129'
p238
aS'187.49.114.1:8080'
p239
aS'124.200.184.206:8118'
p240
aS'183.239.173.138:8080'
p241
aS'118.144.171.253:3128'
p242
aS'37.77.128.162:8080'
p243
aS'120.52.72.53:80'
p244
aS'222.89.231.174:8000'
p245
aS'190.63.157.226:8081'
p246
aS'118.144.106.240:3128'
p247
aS'120.52.72.30:80'
p248
aS'193.59.42.124:3128'
p249
aS'58.20.234.243:8000'
p250
aS'52.71.200.4:80'
p251
aS'117.149.31.107:8000'
p252
aS'5.139.129.96:3128'
p253
aS'61.164.0.212:8080'
p254
aS'157.7.131.184:8080'
p255
aS'43.243.112.23:3128'
p256
aS'223.68.1.38:8000'
p257
aS'1.234.45.50:3128'
p258
aS'120.52.72.75:80'
p259
aS'120.52.72.47:80'
p260
aS'79.143.188.122:3128'
p261
aS'120.52.72.61:80'
p262
aS'52.77.228.149:3128'
p263
aS'120.52.72.38:80'
p264
aS'112.16.87.160:80'
p265
aS'112.16.87.77:80'
p266
aS'120.52.72.23:80'
p267
aS'110.52.232.60:80'
p268
aS'123.56.28.196:8888'
p269
aS'114.215.187.135:8888'
p270
aS'61.179.110.8:8081'
p271
aS'120.198.231.24:80'
p272
aS'101.226.249.237:80'
p273
aS'120.52.72.33:80'
p274
aS'117.240.187.35:3128'
p275
aS'202.62.85.186:8080'
p276
aS'182.90.22.213:80'
p277
aS'123.139.59.242:9999'
p278
aS'157.7.131.249:8080'
p279
aS'77.250.95.81:80'
p280
aS'151.236.63.217:3128'
p281
aS'14.39.140.6:8080'
p282
aS'121.41.45.171:80'
p283
aS'221.7.139.250:8000'
p284
aS'120.198.231.86:8080'
p285
aS'120.198.231.87:80'
p286
aS'121.43.146.131:8090'
p287
aS'120.52.72.67:80'
p288
aS'107.151.142.123:80'
p289
aS'120.52.72.54:80'
p290
aS'221.203.208.22:80'
p291
aS'202.100.167.142:80'
p292
aS'171.34.41.248:8000'
p293
aS'60.191.170.52:3128'
p294
aS'124.81.118.234:8080'
p295
aS'222.88.199.140:9999'
p296
aS'211.23.17.101:3128'
p297
aS'117.122.192.90:80'
p298
aS'203.192.12.148:80'
p299
aS'1.93.2.191:3128'
p300
aS'37.46.129.238:8080'
p301
aS'188.241.68.103:3128'
p302
aS'187.108.41.130:80'
p303
aS'162.150.15.250:3128'
p304
aS'128.199.112.86:8080'
p305
aS'120.52.72.21:80'
p306
aS'58.83.174.114:80'
p307
aS'120.52.72.26:80'
p308
aS'120.198.244.29:8080'
p309
aS'220.176.196.138:80'
p310
aS'59.39.88.190:8080'
p311
aS'36.7.151.29:8000'
p312
aS'120.52.72.83:80'
p313
aS'123.163.52.24:8000'
p314
aS'192.99.43.195:3128'
p315
aS'220.161.218.94:3128'
p316
aS'120.52.72.32:80'
p317
aS'220.249.187.36:8000'
p318
aS'200.58.160.180:3128'
p319
aS'58.83.211.32:80'
p320
aS'58.218.198.2:6666'
p321
aS'120.26.110.59:8080'
p322
aS'222.243.16.44:3128'
p323
aS'113.107.57.76:8101'
p324
aS'183.247.158.197:80'
p325
aS'115.46.88.61:8000'
p326
aS'78.85.14.140:8080'
p327
aS'218.173.159.31:3128'
p328
aS'180.176.0.124:3128'
p329
aS'85.233.77.16:8080'
p330
aS'117.177.250.154:82'
p331
aS'123.57.36.131:80'
p332
aS'222.89.107.210:8000'
p333
aS'116.31.76.196:3128'
p334
aS'60.13.8.225:8888'
p335
aS'202.100.167.143:80'
p336
aS'58.253.238.243:80'
p337
aS'60.191.164.22:3128'
p338
aS'60.13.226.254:80'
p339
aS'104.202.117.9:80'
p340
aS'153.101.208.147:80'
p341
aS'61.162.223.41:9797'
p342
aS'113.79.31.60:9797'
p343
aS'128.199.89.80:8080'
p344
aS'45.115.174.187:80'
p345
aS'113.107.57.76:80'
p346
aS'121.42.152.19:80'
p347
aS'198.1.88.46:3128'
p348
aS'110.18.241.9:3128'
p349
aS'115.88.201.51:3128'
p350
aS'218.198.126.242:8080'
p351
aS'101.200.202.168:80'
p352
aS'120.52.72.41:80'
p353
aS'111.47.13.4:80'
p354
aS'58.19.222.139:3128'
p355
aS'61.218.9.189:3128'
p356
aS'157.7.130.146:8080'
p357
aS'183.63.129.91:3128'
p358
aS'168.9.40.11:8080'
p359
aS'183.111.169.205:3128'
p360
aS'183.111.169.204:3128'
p361
aS'117.177.250.149:80'
p362
aS'123.162.182.71:8000'
p363
aS'202.100.167.145:80'
p364
aS'61.184.199.203:3128'
p365
aS'121.69.25.38:8080'
p366
aS'183.131.151.208:80'
p367
aS'221.7.169.124:8000'
p368
aS'223.68.190.178:8000'
p369
aS'52.69.158.205:80'
p370
aS'45.32.161.29:8080'
p371
aS'118.192.147.131:8080'
p372
aS'114.46.143.131:8080'
p373
aS'221.7.206.140:8080'
p374
aS'61.158.173.14:8080'
p375
aS'221.193.235.90:9999'
p376
aS'222.158.239.71:80'
p377
aS'209.34.18.162:3128'
p378
aS'103.232.32.45:3128'
p379
aS'85.233.77.3:8080'
p380
aS'173.160.192.137:8080'
p381
aS'85.233.77.20:8080'
p382
aS'210.1.81.46:8080'
p383
aS'87.50.8.78:3128'
p384
aS'58.19.133.121:80'
p385
aS'60.191.146.245:3128'
p386
aS'218.75.8.244:3128'
p387
aS'218.76.84.201:3128'
p388
aS'52.192.31.239:80'
p389
aS'110.72.0.166:8123'
p390
aS'180.102.132.6:8118'
p391
aS'113.105.174.136:3128'
p392
aS'118.253.83.229:9999'
p393
aS'59.35.6.141:9999'
p394
aS'61.7.149.69:8080'
p395
aS'212.241.10.16:3128'
p396
aS'43.243.112.25:3128'
p397
aS'192.99.59.185:3128'
p398
aS'5.196.17.130:8888'
p399
aS'119.255.9.93:80'
p400
aS'101.254.188.198:8080'
p401
aS'207.28.38.3:3128'
p402
aS'180.250.163.34:8888'
p403
aS'222.88.202.208:8000'
p404
aS'185.92.220.84:3128'
p405
aS'187.49.127.170:8080'
p406
aS'43.243.112.10:3128'
p407
aS'119.39.191.52:80'
p408
aS'120.194.18.90:81'
p409
aS'60.191.156.134:3128'
p410
aS'54.94.140.139:3128'
p411
aS'218.28.172.115:3128'
p412
aS'60.191.157.155:3128'
p413
aS'221.206.72.203:80'
p414
aS'115.25.138.245:3128'
p415
aS'79.172.0.210:3128'
p416
aS'80.80.228.5:80'
p417
aS'110.73.3.76:8123'
p418
aS'112.73.0.34:80'
p419
aS'27.46.20.43:9000'
p420
aS'119.144.247.141:9999'
p421
aS'180.183.155.224:3128'
p422
aS'64.20.48.83:8080'
p423
aS'180.250.55.194:8080'
p424
aS'171.35.242.139:80'
p425
aS'183.221.221.149:8000'
p426
aS'60.15.25.190:3128'
p427
aS'120.52.72.78:80'
p428
aS'183.207.180.230:8000'
p429
aS'192.99.54.110:80'
p430
aS'222.246.232.55:80'
p431
aS'115.47.39.91:3128'
p432
aS'52.62.21.148:8888'
p433
aS'60.169.78.218:808'
p434
aS'140.121.80.123:3128'
p435
aS'113.200.29.10:9999'
p436
aS'87.98.218.86:3128'
p437
aS'122.226.142.52:3128'
p438
aS'60.191.160.20:3128'
p439
aS'110.77.134.112:8080'
p440
aS'110.73.3.248:8123'
p441
aS'110.73.4.115:8123'
p442
aS'119.140.228.176:9999'
p443
aS'1.160.26.15:3128'
p444
aS'124.131.221.142:9999'
p445
aS'163.125.255.115:9999'
p446
aS'118.126.142.209:3128'
p447
aS'51.255.193.220:80'
p448
aS'51.255.165.213:8080'
p449
aS'121.120.80.215:3128'
p450
aS'103.47.193.102:8000'
p451
aS'183.88.50.252:8080'
p452
aS'5.135.216.9:3128'
p453
aS'212.90.182.210:3128'
p454
aS'211.104.195.10:3128'
p455
aS'111.200.230.235:80'
p456
aS'157.122.156.98:80'
p457
aS'120.198.231.22:8081'
p458
aS'210.21.113.236:80'
p459
aS'45.78.46.113:3128'
p460
aS'118.193.81.78:80'
p461
aS'192.80.190.239:3128'
p462
aS'89.249.207.65:3128'
p463
aS'182.253.37.89:8080'
p464
aS'110.73.5.116:8123'
p465
aS'171.39.77.187:8123'
p466
aS'58.211.13.26:55336'
p467
aS'183.39.220.134:9999'
p468
aS'119.51.63.37:9000'
p469
aS'222.47.40.53:80'
p470
aS'91.143.174.2:3128'
p471
aS'183.89.148.103:3128'
p472
aS'195.2.214.91:8080'
p473
aS'14.207.4.95:3128'
p474
aS'92.109.26.215:3128'
p475
aS'43.242.104.43:80'
p476
aS'220.85.99.82:3128'
p477
aS'61.175.231.237:3128'
p478
aS'177.85.7.126:8080'
p479
aS'69.58.50.149:8080'
p480
aS'120.52.72.77:80'
p481
aS'162.243.32.139:3128'
p482
aS'59.51.73.141:3128'
p483
aS'120.198.231.88:80'
p484
aS'189.113.135.230:8080'
p485
aS'124.200.98.154:8118'
p486
aS'123.7.88.197:3128'
p487
aS'103.248.103.24:80'
p488
aS'37.228.89.210:80'
p489
aS'183.136.239.81:80'
p490
aS'121.69.33.158:8080'
p491
aS'125.39.67.194:3128'
p492
aS'218.29.236.194:3128'
p493
aS'120.52.72.62:80'
p494
aS'114.215.104.175:8080'
p495
aS'61.150.89.67:3128'
p496
aS'110.73.0.255:8123'
p497
aS'222.169.60.154:9999'
p498
aS'36.110.110.44:3128'
p499
aS'123.11.39.79:9999'
p500
aS'222.179.91.90:3128'
p501
aS'221.193.235.94:9999'
p502
aS'58.247.125.207:80'
p503
aS'52.18.181.5:80'
p504
aS'94.207.25.253:80'
p505
aS'222.173.153.162:80'
p506
aS'122.224.209.98:3128'
p507
aS'1.197.14.102:8000'
p508
aS'112.53.81.187:80'
p509
aS'125.64.5.3:8000'
p510
aS'121.31.22.82:8000'
p511
aS'117.177.250.147:8080'
p512
aS'112.26.207.25:81'
p513
aS'117.177.250.149:8080'
p514
aS'60.11.11.163:3128'
p515
aS'120.52.72.180:80'
p516
aS'221.4.245.242:8000'
p517
aS'61.235.125.26:81'
p518
aS'120.52.72.46:80'
p519
aS'222.220.144.35:3128'
p520
aS'120.52.72.68:80'
p521
aS'174.142.207.107:3128'
p522
aS'118.253.82.40:9999'
p523
aS'157.7.242.91:8080'
p524
aS'157.7.131.252:8080'
p525
aS'157.7.128.215:8080'
p526
aS'62.109.5.47:3128'
p527
aS'119.255.9.91:80'
p528
aS'107.151.142.126:80'
p529
aS'111.14.40.149:80'
p530
aS'208.82.152.100:8080'
p531
aS'218.15.22.243:3128'
p532
aS'92.46.125.19:3128'
p533
aS'110.9.112.148:3128'
p534
aS'157.7.133.147:8080'
p535
aS'192.3.191.119:8080'
p536
aS'91.214.133.246:3128'
p537
aS'43.243.112.79:3128'
p538
aS'36.66.195.164:80'
p539
aS'120.198.231.22:80'
p540
aS'123.157.99.140:80'
p541
aS'112.25.234.188:8000'
p542
aS'58.252.7.125:8000'
p543
aS'157.122.117.237:8000'
p544
aS'120.52.72.80:80'
p545
aS'118.193.185.83:80'
p546
aS'76.120.85.85:3128'
p547
aS'223.255.18.167:3128'
p548
aS'216.171.205.9:8080'
p549
aS'192.3.90.124:3128'
p550
aS'220.248.224.243:8089'
p551
aS'120.52.72.37:80'
p552
aS'94.75.214.129:3128'
p553
aS'120.52.72.31:80'
p554
aS'73.78.88.78:80'
p555
aS'218.63.208.223:3128'
p556
aS'120.52.72.39:80'
p557
aS'123.54.5.70:8000'
p558
aS'220.177.55.41:3128'
p559
aS'119.141.231.163:3128'
p560
aS'60.219.24.112:3128'
p561
aS'119.147.115.30:8088'
p562
aS'188.120.238.38:3128'
p563
aS'186.67.158.43:3128'
p564
aS'201.198.194.6:1080'
p565
aS'123.157.233.138:8000'
p566
aS'124.232.147.103:80'
p567
aS'112.16.88.131:80'
p568
aS'121.31.21.138:8000'
p569
aS'120.52.72.55:80'
p570
aS'111.200.230.233:80'
p571
aS'170.24.138.6:3128'
p572
aS'120.52.72.29:80'
p573
aS'133.130.125.3:8080'
p574
aS'111.202.4.164:9999'
p575
aS'61.53.65.54:3128'
p576
aS'61.142.131.183:80'
p577
aS'119.6.238.65:80'
p578
aS'123.59.68.95:3128'
p579
aS'1.163.51.217:3128'
p580
aS'187.108.190.215:3128'
p581
aS'125.62.14.162:3128'
p582
aS'159.226.40.218:10001'
p583
aS'123.176.37.106:3128'
p584
aS'58.211.208.38:8080'
p585
aS'111.221.109.152:3128'
p586
aS'218.76.90.152:3128'
p587
aS'121.201.19.132:80'
p588
aS'115.238.228.9:8080'
p589
aS'58.11.195.65:3128'
p590
aS'37.187.19.128:3128'
p591
aS'222.246.232.55:8101'
p592
aS'117.156.21.140:80'
p593
aS'221.7.206.140:80'
p594
aS'177.82.0.227:8080'
p595
aS'124.202.179.242:8118'
p596
aS'111.1.61.37:80'
p597
aS'111.14.40.147:80'
p598
aS'202.100.167.166:80'
p599
aS'213.136.79.124:80'
p600
aS'112.74.83.129:81'
p601
aS'110.73.2.133:8123'
p602
aS'123.138.216.91:9999'
p603
aS'80.92.82.30:3128'
p604
aS'202.138.240.135:8080'
p605
aS'5.196.208.4:3128'
p606
aS'183.111.169.202:3128'
p607
aS'112.74.207.196:3128'
p608
aS'221.228.205.98:3128'
p609
aS'183.111.169.203:3128'
p610
aS'119.81.166.132:1080'
p611
aS'113.78.17.50:3128'
p612
aS'77.94.243.34:8080'
p613
aS'13.76.131.253:8080'
p614
aS'118.70.80.131:3128'
p615
aS'93.183.155.39:8080'
p616
aS'211.64.96.6:3128'
p617
aS'121.15.171.70:3128'
p618
aS'31.131.251.102:8080'
p619
aS'219.145.244.250:3128'
p620
aS'124.166.250.15:3128'
p621
aS'37.187.60.61:80'
p622
aS'113.215.0.130:843'
p623
aS'183.129.210.18:8888'
p624
aS'60.194.100.51:80'
p625
aS'220.174.39.109:3128'
p626
aS'95.79.102.170:3128'
p627
aS'23.97.61.28:3128'
p628
aS'112.64.185.73:80'
p629
aS'101.200.174.11:3128'
p630
aS'123.162.182.70:8000'
p631
aS'122.226.182.233:8080'
p632
aS'124.206.107.125:3128'
p633
aS'222.222.251.185:9999'
p634
aS'202.100.25.174:3128'
p635
aS'211.157.146.28:8080'
p636
aS'120.26.77.11:80'
p637
aS'123.65.217.120:9999'
p638
aS'187.87.77.76:3128'
p639
aS'117.36.198.55:3128'
p640
aS'202.100.167.170:80'
p641
aS'110.52.232.66:80'
p642
aS'101.96.11.63:8080'
p643
aS'123.157.209.62:8000'
p644
aS'202.100.167.134:80'
p645
aS'122.226.182.233:80'
p646
aS'79.120.72.222:3128'
p647
aS'123.52.232.158:8000'
p648
aS'122.70.178.242:8118'
p649
aS'120.52.72.66:80'
p650
aS'180.97.29.57:80'
p651
aS'183.207.232.43:80'
p652
aS'111.40.197.10:80'
p653
aS'58.20.242.85:8000'
p654
aS'118.169.126.66:80'
p655
aS'183.86.210.199:80'
p656
aS'111.221.105.87:3128'
p657
aS'159.226.224.180:3128'
p658
aS'123.54.3.21:8000'
p659
aS'114.41.149.14:3128'
p660
aS'66.23.230.117:3128'
p661
aS'183.88.92.236:3128'
p662
aS'58.59.68.91:9797'
p663
aS'208.82.152.101:8080'
p664
aS'43.243.112.86:3128'
p665
aS'58.251.132.181:8888'
p666
aS'36.7.108.56:8000'
p667
aS'218.75.26.44:808'
p668
aS'24.157.37.61:8080'
p669
aS'163.125.254.222:9999'
p670
aS'217.20.83.130:3128'
p671
aS'120.52.72.72:80'
p672
aS'5.189.135.53:80'
p673
aS'49.1.244.139:3128'
p674
aS'118.144.159.65:3128'
p675
aS'218.77.8.78:3128'
p676
aS'50.241.118.213:80'
p677
aS'128.199.147.23:8080'
p678
aS'120.198.231.85:8080'
p679
aS'202.195.192.197:3128'
p680
aS'191.234.20.141:8080'
p681
aS'220.181.32.106:80'
p682
aS'110.52.232.56:80'
p683
aS'61.172.249.96:80'
p684
aS'59.58.162.141:888'
p685
aS'119.140.228.198:9999'
p686
aS'187.58.127.191:8080'
p687
aS'113.80.37.77:3128'
p688
aS'61.224.72.144:3128'
p689
aS'112.101.80.171:9797'
p690
aS'37.187.125.39:8080'
p691
aS'45.113.253.43:8090'
p692
aS'107.167.111.79:80'
p693
aS'107.167.111.89:80'
p694
aS'185.26.183.65:443'
p695
aS'189.38.251.223:8080'
p696
aS'111.1.89.254:80'
p697
aS'89.206.236.236:80'
p698
aS'121.69.22.6:8118'
p699
aS'121.69.12.58:8118'
p700
aS'12.173.71.197:8080'
p701
aS'117.78.34.32:80'
p702
aS'218.241.167.190:3128'
p703
aS'122.155.222.98:3128'
p704
aS'60.191.157.90:3128'
p705
aS'128.199.184.159:8080'
p706
aS'168.9.40.10:8080'
p707
aS'218.75.56.230:3128'
p708
aS'113.53.91.236:8080'
p709
aS'91.185.248.16:3128'
p710
aS'43.243.112.8:3128'
p711
aS'120.52.73.27:8081'
p712
aS'1.193.163.32:8000'
p713
aS'61.135.36.98:8080'
p714
aS'60.17.187.73:8080'
p715
aS'117.21.182.109:80'
p716
aS'43.224.34.110:3128'
p717
aS'176.9.59.80:3128'
p718
aS'111.14.40.154:80'
p719
aS'120.52.72.34:80'
p720
aS'106.37.177.251:3128'
p721
aS'121.69.24.22:8118'
p722
aS'121.69.29.122:8118'
p723
aS'101.200.179.38:3128'
p724
aS'58.20.248.68:8000'
p725
aS'111.14.40.155:80'
p726
aS'183.95.81.100:80'
p727
aS'117.177.250.153:80'
p728
aS'202.96.102.57:8080'
p729
aS'61.224.67.160:3128'
p730
aS'176.31.99.80:2222'
p731
aS'54.179.149.142:80'
p732
aS'153.127.252.50:53636'
p733
aS'104.238.150.213:8088'
p734
aS'219.94.248.192:3128'
p735
aS'106.186.22.65:8888'
p736
aS'120.198.231.85:80'
p737
aS'182.254.153.54:8080'
p738
aS'120.194.249.240:8000'
p739
aS'202.100.167.137:80'
p740
aS'107.151.152.210:80'
p741
aS'119.10.2.149:80'
p742
aS'61.163.59.65:3128'
p743
aS'111.206.81.248:80'
p744
aS'121.42.220.79:8088'
p745
aS'61.174.13.12:80'
p746
aS'124.67.67.154:3128'
p747
aS'124.115.211.30:9999'
p748
aS'123.51.170.56:80'
p749
aS'202.117.48.252:3128'
p750
aS'92.222.209.51:3128'
p751
aS'124.146.151.18:8080'
p752
aS'117.177.250.153:82'
p753
aS'1.193.162.123:8000'
p754
aS'203.195.162.96:8080'
p755
aS'221.10.121.42:80'
p756
aS'112.29.170.67:80'
p757
aS'218.78.210.190:8080'
p758
aS'112.26.168.46:81'
p759
aS'119.28.49.187:3128'
p760
aS'108.59.10.135:55555'
p761
aS'185.22.172.132:3128'
p762
aS'58.20.235.180:8000'
p763
aS'124.200.100.50:8080'
p764
aS'107.151.136.194:80'
p765
aS'112.26.132.87:81'
p766
aS'123.51.170.58:80'
p767
aS'116.231.214.213:8118'
p768
aS'117.177.250.152:80'
p769
aS'14.221.137.94:3128'
p770
aS'64.173.188.20:8080'
p771
aS'27.220.148.119:8080'
p772
aS'182.90.15.93:80'
p773
aS'111.193.20.114:9797'
p774
aS'64.173.224.248:8080'
p775
aS'141.155.214.50:80'
p776
aS'144.76.232.58:3128'
p777
aS'202.138.240.74:8080'
p778
aS'213.136.79.122:80'
p779
aS'219.141.225.149:80'
p780
aS'202.77.57.124:3128'
p781
aS'219.246.178.234:3128'
p782
aS'221.204.96.129:9797'
p783
aS'36.234.130.181:3128'
p784
aS'78.110.147.229:3128'
p785
aS'183.89.148.24:3128'
p786
aS'94.207.230.226:80'
p787
aS'108.59.10.141:55555'
p788
aS'149.202.248.64:3128'
p789
aS'82.200.245.107:3128'
p790
aS'187.189.54.206:8080'
p791
aS'52.192.198.216:3128'
p792
aS'109.235.65.68:3128'
p793
aS'111.200.230.232:80'
p794
aS'218.244.140.99:8888'
p795
aS'211.102.210.41:8080'
p796
aS'119.6.55.190:8000'
p797
aS'96.45.112.170:80'
p798
aS'202.100.167.159:80'
p799
aS'158.69.206.63:3128'
p800
aS'202.105.179.164:3128'
p801
aS'112.53.81.186:80'
p802
aS'221.206.210.195:3128'
p803
aS'115.159.5.247:8080'
p804
aS'5.45.73.218:80'
p805
aS'209.79.65.140:8080'
p806
aS'47.88.24.115:808'
p807
aS'222.186.12.195:3080'
p808
aS'117.114.129.122:3128'
p809
aS'221.233.134.62:80'
p810
aS'183.19.61.104:9999'
p811
aS'131.100.38.168:8080'
p812
aS'149.202.249.227:3128'
p813
aS'192.99.54.41:3128'
p814
aS'49.231.17.108:8080'
p815
aS'61.75.2.124:3128'
p816
aS'158.69.218.72:8080'
p817
aS'120.198.233.211:8080'
p818
aS'51.254.103.206:3128'
p819
aS'110.17.172.150:3128'
p820
aS'223.68.184.81:8000'
p821
aS'202.108.23.247:80'
p822
aS'101.200.178.46:3128'
p823
aS'188.165.154.254:3128'
p824
aS'61.153.201.187:3128'
p825
aS'112.16.87.157:80'
p826
aS'119.29.142.189:80'
p827
aS'61.159.143.8:80'
p828
aS'202.100.167.169:80'
p829
aS'140.115.53.101:3128'
p830
aS'119.202.60.77:80'
p831
aS'107.163.117.183:808'
p832
aS'122.154.66.132:80'
p833
aS'120.52.72.57:80'
p834
aS'120.27.118.141:3128'
p835
aS'120.52.72.65:80'
p836
aS'112.25.41.136:80'
p837
aS'201.245.205.229:3128'
p838
aS'203.195.160.14:8080'
p839
aS'199.115.117.212:80'
p840
aS'108.170.13.22:8888'
p841
aS'192.99.54.41:8080'
p842
aS'223.223.182.59:80'
p843
aS'114.26.236.65:3128'
p844
aS'218.56.132.155:8080'
p845
aS'107.163.117.108:808'
p846
aS'176.110.122.254:8080'
p847
aS'91.121.94.39:3128'
p848
aS'45.115.36.73:3128'
p849
aS'103.15.122.218:80'
p850
aS'192.99.44.195:3128'
p851
aS'101.200.192.67:3128'
p852
aS'120.52.42.107:80'
p853
aS'123.157.99.140:8000'
p854
aS'112.25.41.111:80'
p855
aS'114.45.222.243:3128'
p856
aS'203.66.159.41:3128'
p857
aS'211.161.103.249:3128'
p858
aS'185.87.160.135:4444'
p859
aS'5.143.202.153:3128'
p860
aS'212.182.50.100:3128'
p861
aS'5.189.154.161:9909'
p862
aS'189.210.228.157:3128'
p863
aS'52.68.207.5:3128'
p864
aS'153.122.48.186:4444'
p865
aS'121.69.6.142:8118'
p866
aS'104.250.144.10:81'
p867
aS'124.200.96.226:8118'
p868
aS'114.66.7.140:8080'
p869
aS'58.246.242.154:8080'
p870
aS'115.29.202.148:8888'
p871
aS'120.138.75.51:8080'
p872
aS'117.135.251.136:80'
p873
aS'122.225.107.145:80'
p874
aS'221.4.250.114:8000'
p875
aS'117.135.251.135:80'
p876
aS'182.92.188.23:3128'
p877
aS'120.194.222.212:8000'
p878
aS'119.188.115.23:8088'
p879
aS'117.135.251.134:80'
p880
aS'64.173.224.126:8080'
p881
aS'190.122.184.85:8080'
p882
aS'183.89.97.40:3128'
p883
aS'202.100.167.180:80'
p884
aS'183.89.230.153:3128'
p885
aS'164.132.107.223:3128'
p886
aS'85.114.130.226:3128'
p887
aS'45.113.253.45:8090'
p888
aS'111.251.236.241:80'
p889
aS'112.90.179.153:4040'
p890
aS'104.250.146.37:81'
p891
aS'108.59.10.138:55555'
p892
aS'108.59.10.129:55555'
p893
aS'117.135.251.132:8080'
p894
aS'120.52.72.58:80'
p895
aS'222.45.196.46:8118'
p896
aS'221.5.4.90:8080'
p897
aS'111.2.196.130:80'
p898
aS'117.121.49.217:80'
p899
aS'111.161.126.106:80'
p900
a.