(lp1
S'14.152.37.194:80'
p2
aS'27.115.75.114:8080'
p3
aS'27.221.31.66:8080'
p4
aS'27.221.31.78:8080'
p5
aS'58.59.68.91:9797'
p6
aS'58.220.2.132:80'
p7
aS'58.220.2.133:80'
p8
aS'58.220.2.134:80'
p9
aS'58.220.2.136:80'
p10
aS'58.220.2.137:80'
p11
aS'58.220.2.138:80'
p12
aS'58.220.2.139:80'
p13
aS'58.220.2.140:80'
p14
aS'58.220.2.141:80'
p15
aS'58.220.2.142:80'
p16
aS'58.220.2.145:80'
p17
aS'58.220.2.147:80'
p18
aS'58.220.2.148:80'
p19
aS'58.220.2.153:80'
p20
aS'58.220.2.156:80'
p21
aS'58.220.2.159:17183'
p22
aS'58.253.238.242:80'
p23
aS'58.253.238.243:80'
p24
aS'59.39.88.190:8080'
p25
aS'59.58.162.141:888'
p26
aS'60.191.158.211:3128'
p27
aS'60.191.164.22:3128'
p28
aS'60.191.167.11:3128'
p29
aS'60.191.167.93:3128'
p30
aS'60.191.170.52:3128'
p31
aS'60.191.179.53:3128'
p32
aS'61.174.10.22:8080'
p33
aS'101.26.38.162:80'
p34
aS'101.66.253.22:8080'
p35
aS'101.226.249.237:80'
p36
aS'106.38.251.62:8088'
p37
aS'112.25.41.136:80'
p38
aS'112.84.130.10:80'
p39
aS'112.84.130.14:80'
p40
aS'112.84.130.18:80'
p41
aS'112.84.130.31:80'
p42
aS'113.200.250.112:8080'
p43
aS'115.159.5.247:80'
p44
aS'115.159.5.247:8080'
p45
aS'115.182.83.38:8080'
p46
aS'115.231.65.15:8080'
p47
aS'115.231.65.16:8080'
p48
aS'115.238.225.26:80'
p49
aS'116.228.80.186:8080'
p50
aS'117.156.15.19:80'
p51
aS'117.156.15.20:80'
p52
aS'117.156.15.21:80'
p53
aS'117.156.15.22:80'
p54
aS'117.156.15.23:80'
p55
aS'117.156.15.25:80'
p56
aS'117.177.243.42:81'
p57
aS'117.177.243.42:82'
p58
aS'117.177.243.42:83'
p59
aS'117.177.243.42:84'
p60
aS'117.177.243.42:85'
p61
aS'117.177.243.42:8080'
p62
aS'117.177.243.42:8081'
p63
aS'117.177.243.42:8082'
p64
aS'117.177.243.42:8083'
p65
aS'117.177.243.42:8084'
p66
aS'117.177.243.42:8085'
p67
aS'117.177.249.9:80'
p68
aS'118.144.171.253:3128'
p69
aS'118.244.239.2:3128'
p70
aS'119.147.161.55:3128'
p71
aS'120.192.92.98:80'
p72
aS'120.192.92.99:80'
p73
aS'120.197.234.164:80'
p74
aS'121.14.138.56:81'
p75
aS'122.70.178.242:8118'
p76
aS'122.72.18.160:80'
p77
aS'122.141.243.131:80'
p78
aS'122.225.106.36:80'
p79
aS'123.125.114.167:80'
p80
aS'123.157.99.139:3128'
p81
aS'124.206.167.250:3128'
p82
aS'125.39.17.91:3128'
p83
aS'136.0.16.217:7808'
p84
aS'136.0.16.217:8089'
p85
aS'162.208.49.45:8089'
p86
aS'175.43.123.1:55336'
p87
aS'175.188.188.104:8080'
p88
aS'180.97.185.35:10001'
p89
aS'180.166.112.47:8888'
p90
aS'182.140.132.103:8888'
p91
aS'182.140.132.108:8888'
p92
aS'182.254.153.54:80'
p93
aS'182.254.153.54:8080'
p94
aS'183.111.169.205:3128'
p95
aS'183.207.228.122:80'
p96
aS'183.207.232.119:8080'
p97
aS'183.207.232.119:9080'
p98
aS'183.207.232.193:8080'
p99
aS'183.207.232.193:9080'
p100
aS'183.207.232.194:8080'
p101
aS'183.207.232.194:9080'
p102
aS'183.232.32.100:3128'
p103
aS'202.29.97.2:3128'
p104
aS'202.106.16.36:3128'
p105
aS'202.106.169.142:80'
p106
aS'202.108.35.151:80'
p107
aS'203.195.160.14:80'
p108
aS'203.195.162.96:80'
p109
aS'203.195.162.96:8080'
p110
aS'203.195.172.147:80'
p111
aS'211.90.28.102:80'
p112
aS'211.137.32.222:80'
p113
aS'211.144.81.68:18000'
p114
aS'211.144.81.68:18001'
p115
aS'211.144.81.69:18000'
p116
aS'211.144.81.69:18001'
p117
aS'218.90.174.167:3128'
p118
aS'220.181.32.106:80'
p119
aS'220.181.143.14:9999'
p120
aS'221.229.252.98:9797'
p121
aS'222.188.100.203:8086'
p122
aS'223.68.6.10:8000'
p123
aS'223.100.98.44:8000'
p124
aS'14.17.110.2:8088'
p125
aS'14.39.140.6:8080'
p126
aS'202.100.167.171:80'
p127
aS'218.92.227.171:33948'
p128
aS'58.19.222.139:3128'
p129
aS'58.133.61.3:3128'
p130
aS'58.220.2.135:80'
p131
aS'218.92.227.165:33965'
p132
aS'218.92.227.169:18186'
p133
aS'218.92.227.165:18256'
p134
aS'202.100.167.149:80'
p135
aS'60.15.56.67:3128'
p136
aS'60.29.248.142:8080'
p137
aS'60.191.146.52:3128'
p138
aS'59.78.160.247:8080'
p139
aS'218.92.227.168:23239'
p140
aS'60.191.156.134:3128'
p141
aS'60.191.161.28:3128'
p142
aS'218.92.227.171:16107'
p143
aS'218.92.227.171:15238'
p144
aS'60.191.168.43:3128'
p145
aS'60.191.173.11:3128'
p146
aS'60.191.175.54:3128'
p147
aS'60.194.100.51:80'
p148
aS'111.11.184.51:80'
p149
aS'61.53.65.52:3128'
p150
aS'218.92.227.173:23684'
p151
aS'61.153.201.187:3128'
p152
aS'103.27.24.117:80'
p153
aS'106.38.251.63:8088'
p154
aS'106.56.225.200:3128'
p155
aS'111.11.184.49:80'
p156
aS'111.11.184.51:9999'
p157
aS'112.5.254.172:80'
p158
aS'112.84.130.11:80'
p159
aS'113.204.212.50:3128'
p160
aS'113.247.233.67:3128'
p161
aS'115.29.150.252:3128'
p162
aS'115.231.158.51:80'
p163
aS'115.231.158.51:3128'
p164
aS'116.112.102.38:3128'
p165
aS'117.177.243.42:86'
p166
aS'117.177.243.42:8086'
p167
aS'120.26.79.126:3128'
p168
aS'120.198.236.10:8081'
p169
aS'120.198.236.10:8084'
p170
aS'120.198.245.39:80'
p171
aS'121.43.187.19:8080'
p172
aS'121.69.15.58:8118'
p173
aS'121.207.6.58:3128'
p174
aS'121.207.6.126:3128'
p175
aS'122.72.124.42:80'
p176
aS'122.225.106.35:80'
p177
aS'122.226.128.251:3128'
p178
aS'122.226.133.60:3128'
p179
aS'124.166.250.14:3128'
p180
aS'124.200.100.50:8080'
p181
aS'124.251.62.246:80'
p182
aS'125.212.37.72:3128'
p183
aS'125.212.225.86:3128'
p184
aS'128.199.247.154:80'
p185
aS'163.177.155.2:8088'
p186
aS'163.177.159.148:8080'
p187
aS'163.177.159.149:80'
p188
aS'183.63.239.213:3128'
p189
aS'183.111.169.207:3128'
p190
aS'183.250.161.227:9999'
p191
aS'188.166.226.243:3128'
p192
aS'188.226.172.109:3128'
p193
aS'111.11.255.11:80'
p194
aS'122.226.132.139:3128'
p195
aS'183.252.18.131:8080'
p196
a.