(lp1
S'117.177.243.40:86'
p2
aS'218.57.200.15:8080'
p3
aS'111.12.83.29:80'
p4
aS'117.177.243.40:8083'
p5
aS'27.115.75.114:8080'
p6
aS'27.221.31.78:8080'
p7
aS'58.220.2.132:80'
p8
aS'58.220.2.133:80'
p9
aS'58.220.2.134:80'
p10
aS'58.220.2.137:80'
p11
aS'58.220.2.139:80'
p12
aS'58.220.2.141:80'
p13
aS'58.220.2.142:80'
p14
aS'58.220.2.147:80'
p15
aS'58.220.2.148:80'
p16
aS'58.220.2.153:80'
p17
aS'58.220.2.156:80'
p18
aS'58.220.2.159:17183'
p19
aS'60.11.11.163:3128'
p20
aS'60.15.56.67:3128'
p21
aS'60.191.158.211:3128'
p22
aS'60.191.164.22:3128'
p23
aS'60.191.167.11:3128'
p24
aS'60.191.167.93:3128'
p25
aS'61.174.10.22:8080'
p26
aS'106.37.177.251:3128'
p27
aS'106.38.251.62:8088'
p28
aS'106.38.251.63:8088'
p29
aS'111.13.109.52:80'
p30
aS'112.5.254.172:80'
p31
aS'112.84.130.10:80'
p32
aS'112.84.130.11:80'
p33
aS'112.84.130.18:80'
p34
aS'112.84.130.31:80'
p35
aS'113.204.212.50:3128'
p36
aS'114.35.178.76:80'
p37
aS'115.159.5.247:8080'
p38
aS'115.182.83.38:8080'
p39
aS'115.231.65.15:8080'
p40
aS'115.231.65.16:8080'
p41
aS'115.238.225.26:80'
p42
aS'117.156.15.19:80'
p43
aS'117.156.15.20:80'
p44
aS'117.156.15.23:80'
p45
aS'117.177.243.42:81'
p46
aS'117.177.243.42:82'
p47
aS'117.177.243.42:83'
p48
aS'117.177.243.42:84'
p49
aS'117.177.243.42:85'
p50
aS'117.177.243.42:8080'
p51
aS'117.177.243.42:8081'
p52
aS'117.177.243.42:8082'
p53
aS'117.177.243.42:8083'
p54
aS'117.177.243.42:8085'
p55
aS'117.177.249.9:80'
p56
aS'118.244.239.2:3128'
p57
aS'119.147.161.55:3128'
p58
aS'218.92.227.165:16107'
p59
aS'202.100.167.135:80'
p60
aS'111.12.83.35:80'
p61
aS'163.177.159.145:80'
p62
aS'103.27.24.118:80'
p63
aS'111.12.83.33:80'
p64
aS'117.136.234.18:843'
p65
aS'27.221.31.66:8080'
p66
aS'58.220.2.135:80'
p67
aS'58.220.2.136:80'
p68
aS'58.220.2.138:80'
p69
aS'58.220.2.140:80'
p70
aS'60.191.170.52:3128'
p71
aS'60.191.179.53:3128'
p72
aS'101.66.253.22:8080'
p73
aS'112.84.130.14:80'
p74
aS'115.231.158.51:80'
p75
aS'117.136.234.18:80'
p76
aS'117.156.15.22:80'
p77
aS'117.156.15.25:80'
p78
aS'117.177.243.42:86'
p79
aS'218.92.227.168:16158'
p80
aS'218.92.227.166:18204'
p81
a.