(lp1
S'218.92.227.168:24379'
p2
aS'49.4.129.149:80'
p3
aS'117.177.243.42:81'
p4
aS'61.174.10.22:8080'
p5
aS'202.100.167.149:80'
p6
aS'123.125.104.240:80'
p7
aS'202.100.167.158:80'
p8
aS'202.100.167.137:80'
p9
aS'218.92.227.173:34034'
p10
aS'218.92.227.166:34032'
p11
aS'202.108.23.247:80'
p12
aS'218.92.227.165:33944'
p13
aS'218.76.87.151:3128'
p14
aS'59.58.162.141:888'
p15
aS'218.92.227.165:35098'
p16
aS'120.52.73.32:8080'
p17
aS'60.191.165.28:3128'
p18
aS'60.191.158.211:3128'
p19
aS'60.191.166.130:3128'
p20
aS'123.134.185.11:4040'
p21
aS'119.188.94.145:80'
p22
aS'175.43.123.1:55336'
p23
aS'118.144.151.145:3128'
p24
aS'183.62.58.250:9797'
p25
aS'223.255.14.245:9000'
p26
aS'183.111.169.205:3128'
p27
aS'61.38.252.17:3128'
p28
aS'213.136.79.124:80'
p29
aS'192.118.76.172:80'
p30
aS'87.98.221.137:4050'
p31
aS'218.92.227.168:17130'
p32
aS'218.92.227.172:33719'
p33
aS'218.92.227.166:16158'
p34
aS'218.92.227.165:12945'
p35
aS'218.92.227.173:10000'
p36
aS'117.177.250.145:80'
p37
aS'120.52.73.11:8080'
p38
aS'120.52.73.6:8080'
p39
aS'202.100.167.178:80'
p40
aS'202.100.167.159:80'
p41
aS'118.144.50.220:3128'
p42
aS'120.52.73.10:80'
p43
aS'202.100.167.145:80'
p44
aS'218.92.227.171:33919'
p45
aS'199.227.40.28:80'
p46
aS'60.191.157.90:3128'
p47
aS'218.92.227.165:13243'
p48
aS'112.78.178.16:8080'
p49
aS'182.23.1.150:80'
p50
aS'61.38.252.16:3128'
p51
aS'218.75.8.244:3128'
p52
aS'220.180.137.158:63000'
p53
aS'124.206.133.227:80'
p54
aS'222.174.177.132:8080'
p55
aS'61.48.20.182:3128'
p56
aS'117.114.129.122:3128'
p57
aS'118.26.62.234:3128'
p58
aS'113.119.204.107:808'
p59
aS'222.173.172.94:8123'
p60
aS'122.192.218.94:808'
p61
aS'221.7.13.194:3128'
p62
aS'113.204.212.50:3128'
p63
aS'183.111.169.207:3128'
p64
aS'183.111.169.209:3128'
p65
aS'183.89.81.224:8080'
p66
aS'58.120.96.234:3128'
p67
aS'175.197.116.156:3128'
p68
aS'69.175.71.162:80'
p69
aS'202.62.85.186:8080'
p70
aS'190.98.162.22:8080'
p71
aS'198.169.246.30:80'
p72
aS'128.199.99.190:8888'
p73
aS'103.27.239.222:3128'
p74
aS'80.94.88.37:8080'
p75
aS'218.92.227.165:12884'
p76
aS'218.92.227.165:33965'
p77
aS'218.92.227.165:24809'
p78
aS'218.92.227.170:10080'
p79
aS'218.92.227.165:19329'
p80
aS'218.92.227.165:18888'
p81
aS'106.39.160.99:80'
p82
aS'139.201.126.2:80'
p83
aS'118.26.143.202:3128'
p84
aS'101.26.38.162:80'
p85
aS'60.250.81.118:80'
p86
aS'64.62.233.67:80'
p87
aS'119.253.252.29:3128'
p88
aS'121.15.230.126:9797'
p89
aS'222.175.59.218:9797'
p90
aS'222.246.232.55:8101'
p91
aS'115.238.225.26:80'
p92
aS'59.61.80.78:9999'
p93
aS'123.125.8.253:1209'
p94
aS'183.111.169.202:3128'
p95
aS'40.118.131.11:8080'
p96
aS'95.182.190.85:80'
p97
aS'213.211.36.146:8080'
p98
aS'60.191.164.22:3128'
p99
aS'221.206.209.251:3128'
p100
aS'200.199.34.58:8080'
p101
aS'58.133.61.3:3128'
p102
aS'106.38.251.62:8088'
p103
aS'182.18.19.219:3128'
p104
aS'61.93.246.59:8080'
p105
aS'183.207.228.122:80'
p106
aS'202.103.215.199:80'
p107
aS'182.92.154.63:3128'
p108
aS'203.156.211.116:8080'
p109
aS'104.154.90.76:8080'
p110
aS'78.36.171.210:80'
p111
aS'5.141.9.86:8080'
p112
aS'61.38.252.15:3128'
p113
aS'182.162.141.7:80'
p114
aS'121.88.249.27:3128'
p115
aS'58.120.96.232:3128'
p116
aS'178.151.149.227:80'
p117
aS'101.99.7.200:3128'
p118
aS'101.66.253.22:8080'
p119
aS'218.92.227.168:15238'
p120
aS'218.92.227.170:34484'
p121
aS'218.92.227.173:15692'
p122
aS'218.92.227.165:21320'
p123
aS'218.92.227.166:33942'
p124
aS'117.177.250.147:80'
p125
aS'202.100.167.171:80'
p126
aS'202.100.167.180:80'
p127
aS'122.226.203.70:3128'
p128
aS'27.254.47.203:80'
p129
aS'218.76.90.152:3128'
p130
aS'120.198.231.21:80'
p131
aS'218.78.210.190:8080'
p132
aS'218.92.227.165:33719'
p133
aS'119.253.252.23:3128'
p134
aS'120.197.234.164:80'
p135
aS'202.102.233.96:80'
p136
aS'159.226.224.180:3128'
p137
aS'222.45.196.45:8118'
p138
aS'113.200.29.10:9999'
p139
aS'202.108.35.151:80'
p140
aS'222.45.196.46:8118'
p141
aS'218.30.35.86:8080'
p142
aS'183.111.169.208:3128'
p143
aS'14.39.140.6:8080'
p144
aS'118.70.80.125:3128'
p145
aS'218.92.227.171:16107'
p146
aS'218.92.227.173:15238'
p147
aS'218.92.227.173:33965'
p148
aS'218.92.227.165:17945'
p149
aS'112.101.80.171:9797'
p150
aS'218.92.227.173:35010'
p151
aS'117.177.243.14:83'
p152
aS'218.92.227.165:24379'
p153
aS'218.3.76.28:3128'
p154
aS'120.52.73.25:80'
p155
aS'112.25.41.136:80'
p156
aS'124.200.181.50:8118'
p157
aS'60.169.78.218:808'
p158
aS'27.205.89.229:9999'
p159
aS'222.174.177.130:8080'
p160
aS'115.46.211.67:9999'
p161
aS'58.253.238.242:80'
p162
aS'176.31.180.116:3128'
p163
aS'121.120.80.215:3128'
p164
aS'124.6.135.170:3128'
p165
aS'158.69.217.31:80'
p166
aS'183.111.169.206:3128'
p167
aS'31.173.74.73:8080'
p168
aS'160.92.56.41:80'
p169
aS'203.156.126.38:8080'
p170
aS'101.99.7.195:3128'
p171
aS'117.177.250.149:8080'
p172
aS'120.198.231.24:8080'
p173
aS'178.62.182.5:3127'
p174
aS'202.100.167.173:80'
p175
aS'213.174.107.155:3128'
p176
aS'113.247.233.67:3128'
p177
aS'113.200.81.85:9999'
p178
aS'186.227.56.158:80'
p179
aS'183.63.239.213:3128'
p180
aS'61.38.252.12:3128'
p181
aS'61.172.249.96:80'
p182
aS'120.198.231.22:80'
p183
aS'183.95.81.100:80'
p184
aS'192.99.71.135:3128'
p185
aS'122.225.106.35:80'
p186
aS'58.120.96.236:3128'
p187
aS'202.100.167.172:80'
p188
aS'120.131.128.209:80'
p189
aS'149.202.56.98:8888'
p190
aS'183.111.169.201:3128'
p191
aS'183.111.169.204:3128'
p192
aS'218.213.166.218:81'
p193
aS'160.92.56.40:80'
p194
aS'121.42.220.79:8088'
p195
aS'120.52.73.41:80'
p196
aS'60.13.8.225:8888'
p197
aS'139.196.110.205:80'
p198
aS'139.196.110.195:21320'
p199
aS'118.163.46.234:3128'
p200
aS'218.75.26.44:808'
p201
aS'113.80.37.40:3128'
p202
aS'59.39.88.190:8080'
p203
aS'61.38.252.23:8088'
p204
aS'125.212.225.86:3128'
p205
aS'43.243.112.87:3128'
p206
aS'71.252.175.32:8080'
p207
aS'43.243.112.86:3128'
p208
aS'202.100.167.170:80'
p209
aS'122.225.106.36:80'
p210
aS'113.215.0.130:80'
p211
aS'122.226.128.251:3128'
p212
aS'219.145.244.250:3128'
p213
aS'202.100.167.166:80'
p214
aS'123.52.130.3:9999'
p215
aS'123.59.33.250:80'
p216
aS'114.40.209.95:3128'
p217
aS'58.59.68.91:9797'
p218
aS'61.38.252.13:3128'
p219
aS'58.120.96.235:3128'
p220
aS'183.88.48.112:8080'
p221
aS'61.38.252.14:3128'
p222
aS'186.103.149.50:8080'
p223
aS'177.135.180.180:3128'
p224
aS'89.163.129.222:3128'
p225
aS'117.177.250.154:8080'
p226
aS'58.253.238.243:80'
p227
aS'218.75.0.83:3128'
p228
aS'60.191.153.75:3128'
p229
aS'120.52.73.5:80'
p230
aS'202.100.167.144:80'
p231
aS'116.55.170.96:3128'
p232
aS'115.231.65.15:8080'
p233
aS'60.15.10.67:3128'
p234
aS'61.179.110.8:8081'
p235
aS'190.63.174.246:8081'
p236
aS'58.20.232.245:8000'
p237
aS'120.198.231.86:8081'
p238
aS'59.34.115.118:3128'
p239
aS'120.194.18.90:81'
p240
aS'113.200.78.19:9999'
p241
aS'222.240.207.146:3128'
p242
aS'120.52.73.24:80'
p243
aS'188.39.148.166:8080'
p244
aS'120.55.65.73:3128'
p245
aS'118.144.187.253:3128'
p246
aS'12.173.71.197:8080'
p247
aS'202.100.167.182:80'
p248
aS'124.251.62.246:80'
p249
aS'211.144.76.58:9000'
p250
aS'222.222.251.185:9999'
p251
aS'36.110.110.42:3128'
p252
aS'220.143.79.7:3128'
p253
aS'124.115.211.30:9999'
p254
aS'58.243.0.162:9999'
p255
aS'42.121.113.250:3128'
p256
aS'218.94.25.141:8081'
p257
aS'221.228.248.248:8085'
p258
aS'59.34.13.66:3128'
p259
aS'54.238.204.95:3128'
p260
aS'43.243.112.79:3128'
p261
aS'198.7.57.19:3128'
p262
aS'52.25.79.253:8080'
p263
aS'183.91.12.192:3128'
p264
aS'120.52.73.18:8081'
p265
aS'117.177.250.146:8080'
p266
aS'110.52.232.60:80'
p267
aS'111.13.12.216:80'
p268
aS'120.52.73.29:82'
p269
aS'123.54.3.18:8000'
p270
aS'117.177.243.14:8080'
p271
aS'120.52.73.39:8080'
p272
aS'110.52.232.76:80'
p273
aS'111.11.255.11:80'
p274
aS'115.231.65.16:8080'
p275
aS'223.167.186.44:80'
p276
aS'112.25.185.171:8000'
p277
aS'124.166.250.14:3128'
p278
aS'119.81.226.186:8000'
p279
aS'58.22.191.243:80'
p280
aS'182.18.19.220:3128'
p281
aS'221.6.190.10:8008'
p282
aS'115.25.138.245:3128'
p283
aS'14.116.62.127:9999'
p284
aS'124.131.221.142:9999'
p285
aS'116.211.19.201:8008'
p286
aS'220.249.185.178:9999'
p287
aS'111.248.110.90:3128'
p288
aS'119.53.117.190:9000'
p289
aS'202.82.87.42:8080'
p290
aS'1.173.61.248:3128'
p291
aS'122.226.56.22:8080'
p292
aS'113.30.102.95:3128'
p293
aS'183.88.80.76:8888'
p294
aS'58.120.96.233:3128'
p295
aS'113.30.102.93:3128'
p296
aS'106.187.54.102:8080'
p297
aS'14.139.60.8:9797'
p298
aS'24.157.37.61:8080'
p299
aS'202.29.97.2:3128'
p300
aS'183.82.114.99:3128'
p301
aS'36.79.135.80:8080'
p302
a.